
sdcard_bootloader.elf:     file format elf32-littlearm

Sections:
Idx Name          Size      VMA       LMA       File off  Algn
  0 .isr_vector   00000198  08000000  08000000  00010000  2**0
                  CONTENTS, ALLOC, LOAD, READONLY, DATA
  1 .text         00002eb4  08000198  08000198  00010198  2**2
                  CONTENTS, ALLOC, LOAD, READONLY, CODE
  2 .rodata       00000480  0800304c  0800304c  0001304c  2**1
                  CONTENTS, ALLOC, LOAD, READONLY, DATA
  3 .ARM.extab    00000000  080034cc  080034cc  00020028  2**0
                  CONTENTS
  4 .ARM          00000008  080034cc  080034cc  000134cc  2**2
                  CONTENTS, ALLOC, LOAD, READONLY, DATA
  5 .preinit_array 00000000  080034d4  080034d4  00020028  2**0
                  CONTENTS, ALLOC, LOAD, DATA
  6 .init_array   00000004  080034d4  080034d4  000134d4  2**2
                  CONTENTS, ALLOC, LOAD, DATA
  7 .fini_array   00000004  080034d8  080034d8  000134d8  2**2
                  CONTENTS, ALLOC, LOAD, DATA
  8 .data         00000028  20000000  080034dc  00020000  2**2
                  CONTENTS, ALLOC, LOAD, DATA
  9 .bss          00000278  20000028  08003504  00020028  2**2
                  ALLOC
 10 ._user_heap_stack 00000600  200002a0  08003504  000202a0  2**0
                  ALLOC
 11 .ARM.attributes 00000030  00000000  00000000  00020028  2**0
                  CONTENTS, READONLY
 12 .comment      00000050  00000000  00000000  00020058  2**0
                  CONTENTS, READONLY
 13 .debug_line   00000088  00000000  00000000  000200a8  2**0
                  CONTENTS, READONLY, DEBUGGING, OCTETS
 14 .debug_info   00000022  00000000  00000000  00020130  2**0
                  CONTENTS, READONLY, DEBUGGING, OCTETS
 15 .debug_abbrev 00000012  00000000  00000000  00020152  2**0
                  CONTENTS, READONLY, DEBUGGING, OCTETS
 16 .debug_aranges 00000028  00000000  00000000  00020168  2**3
                  CONTENTS, READONLY, DEBUGGING, OCTETS
 17 .debug_str    00000073  00000000  00000000  00020190  2**0
                  CONTENTS, READONLY, DEBUGGING, OCTETS
 18 .debug_ranges 00000020  00000000  00000000  00020208  2**3
                  CONTENTS, READONLY, DEBUGGING, OCTETS
 19 .debug_frame  000000ac  00000000  00000000  00020228  2**2
                  CONTENTS, READONLY, DEBUGGING, OCTETS

Disassembly of section .text:

08000198 <__do_global_dtors_aux>:
 8000198:	b510      	push	{r4, lr}
 800019a:	4c05      	ldr	r4, [pc, #20]	; (80001b0 <__do_global_dtors_aux+0x18>)
 800019c:	7823      	ldrb	r3, [r4, #0]
 800019e:	b933      	cbnz	r3, 80001ae <__do_global_dtors_aux+0x16>
 80001a0:	4b04      	ldr	r3, [pc, #16]	; (80001b4 <__do_global_dtors_aux+0x1c>)
 80001a2:	b113      	cbz	r3, 80001aa <__do_global_dtors_aux+0x12>
 80001a4:	4804      	ldr	r0, [pc, #16]	; (80001b8 <__do_global_dtors_aux+0x20>)
 80001a6:	f3af 8000 	nop.w
 80001aa:	2301      	movs	r3, #1
 80001ac:	7023      	strb	r3, [r4, #0]
 80001ae:	bd10      	pop	{r4, pc}
 80001b0:	20000028 	.word	0x20000028
 80001b4:	00000000 	.word	0x00000000
 80001b8:	08003034 	.word	0x08003034

080001bc <frame_dummy>:
 80001bc:	b508      	push	{r3, lr}
 80001be:	4b03      	ldr	r3, [pc, #12]	; (80001cc <frame_dummy+0x10>)
 80001c0:	b11b      	cbz	r3, 80001ca <frame_dummy+0xe>
 80001c2:	4903      	ldr	r1, [pc, #12]	; (80001d0 <frame_dummy+0x14>)
 80001c4:	4803      	ldr	r0, [pc, #12]	; (80001d4 <frame_dummy+0x18>)
 80001c6:	f3af 8000 	nop.w
 80001ca:	bd08      	pop	{r3, pc}
 80001cc:	00000000 	.word	0x00000000
 80001d0:	2000002c 	.word	0x2000002c
 80001d4:	08003034 	.word	0x08003034

080001d8 <__aeabi_uldivmod>:
 80001d8:	b953      	cbnz	r3, 80001f0 <__aeabi_uldivmod+0x18>
 80001da:	b94a      	cbnz	r2, 80001f0 <__aeabi_uldivmod+0x18>
 80001dc:	2900      	cmp	r1, #0
 80001de:	bf08      	it	eq
 80001e0:	2800      	cmpeq	r0, #0
 80001e2:	bf1c      	itt	ne
 80001e4:	f04f 31ff 	movne.w	r1, #4294967295	; 0xffffffff
 80001e8:	f04f 30ff 	movne.w	r0, #4294967295	; 0xffffffff
 80001ec:	f000 b974 	b.w	80004d8 <__aeabi_idiv0>
 80001f0:	f1ad 0c08 	sub.w	ip, sp, #8
 80001f4:	e96d ce04 	strd	ip, lr, [sp, #-16]!
 80001f8:	f000 f806 	bl	8000208 <__udivmoddi4>
 80001fc:	f8dd e004 	ldr.w	lr, [sp, #4]
 8000200:	e9dd 2302 	ldrd	r2, r3, [sp, #8]
 8000204:	b004      	add	sp, #16
 8000206:	4770      	bx	lr

08000208 <__udivmoddi4>:
 8000208:	e92d 47f0 	stmdb	sp!, {r4, r5, r6, r7, r8, r9, sl, lr}
 800020c:	9d08      	ldr	r5, [sp, #32]
 800020e:	4604      	mov	r4, r0
 8000210:	468e      	mov	lr, r1
 8000212:	2b00      	cmp	r3, #0
 8000214:	d14d      	bne.n	80002b2 <__udivmoddi4+0xaa>
 8000216:	428a      	cmp	r2, r1
 8000218:	4694      	mov	ip, r2
 800021a:	d969      	bls.n	80002f0 <__udivmoddi4+0xe8>
 800021c:	fab2 f282 	clz	r2, r2
 8000220:	b152      	cbz	r2, 8000238 <__udivmoddi4+0x30>
 8000222:	fa01 f302 	lsl.w	r3, r1, r2
 8000226:	f1c2 0120 	rsb	r1, r2, #32
 800022a:	fa20 f101 	lsr.w	r1, r0, r1
 800022e:	fa0c fc02 	lsl.w	ip, ip, r2
 8000232:	ea41 0e03 	orr.w	lr, r1, r3
 8000236:	4094      	lsls	r4, r2
 8000238:	ea4f 481c 	mov.w	r8, ip, lsr #16
 800023c:	0c21      	lsrs	r1, r4, #16
 800023e:	fbbe f6f8 	udiv	r6, lr, r8
 8000242:	fa1f f78c 	uxth.w	r7, ip
 8000246:	fb08 e316 	mls	r3, r8, r6, lr
 800024a:	ea41 4303 	orr.w	r3, r1, r3, lsl #16
 800024e:	fb06 f107 	mul.w	r1, r6, r7
 8000252:	4299      	cmp	r1, r3
 8000254:	d90a      	bls.n	800026c <__udivmoddi4+0x64>
 8000256:	eb1c 0303 	adds.w	r3, ip, r3
 800025a:	f106 30ff 	add.w	r0, r6, #4294967295	; 0xffffffff
 800025e:	f080 811f 	bcs.w	80004a0 <__udivmoddi4+0x298>
 8000262:	4299      	cmp	r1, r3
 8000264:	f240 811c 	bls.w	80004a0 <__udivmoddi4+0x298>
 8000268:	3e02      	subs	r6, #2
 800026a:	4463      	add	r3, ip
 800026c:	1a5b      	subs	r3, r3, r1
 800026e:	b2a4      	uxth	r4, r4
 8000270:	fbb3 f0f8 	udiv	r0, r3, r8
 8000274:	fb08 3310 	mls	r3, r8, r0, r3
 8000278:	ea44 4403 	orr.w	r4, r4, r3, lsl #16
 800027c:	fb00 f707 	mul.w	r7, r0, r7
 8000280:	42a7      	cmp	r7, r4
 8000282:	d90a      	bls.n	800029a <__udivmoddi4+0x92>
 8000284:	eb1c 0404 	adds.w	r4, ip, r4
 8000288:	f100 33ff 	add.w	r3, r0, #4294967295	; 0xffffffff
 800028c:	f080 810a 	bcs.w	80004a4 <__udivmoddi4+0x29c>
 8000290:	42a7      	cmp	r7, r4
 8000292:	f240 8107 	bls.w	80004a4 <__udivmoddi4+0x29c>
 8000296:	4464      	add	r4, ip
 8000298:	3802      	subs	r0, #2
 800029a:	ea40 4006 	orr.w	r0, r0, r6, lsl #16
 800029e:	1be4      	subs	r4, r4, r7
 80002a0:	2600      	movs	r6, #0
 80002a2:	b11d      	cbz	r5, 80002ac <__udivmoddi4+0xa4>
 80002a4:	40d4      	lsrs	r4, r2
 80002a6:	2300      	movs	r3, #0
 80002a8:	e9c5 4300 	strd	r4, r3, [r5]
 80002ac:	4631      	mov	r1, r6
 80002ae:	e8bd 87f0 	ldmia.w	sp!, {r4, r5, r6, r7, r8, r9, sl, pc}
 80002b2:	428b      	cmp	r3, r1
 80002b4:	d909      	bls.n	80002ca <__udivmoddi4+0xc2>
 80002b6:	2d00      	cmp	r5, #0
 80002b8:	f000 80ef 	beq.w	800049a <__udivmoddi4+0x292>
 80002bc:	2600      	movs	r6, #0
 80002be:	e9c5 0100 	strd	r0, r1, [r5]
 80002c2:	4630      	mov	r0, r6
 80002c4:	4631      	mov	r1, r6
 80002c6:	e8bd 87f0 	ldmia.w	sp!, {r4, r5, r6, r7, r8, r9, sl, pc}
 80002ca:	fab3 f683 	clz	r6, r3
 80002ce:	2e00      	cmp	r6, #0
 80002d0:	d14a      	bne.n	8000368 <__udivmoddi4+0x160>
 80002d2:	428b      	cmp	r3, r1
 80002d4:	d302      	bcc.n	80002dc <__udivmoddi4+0xd4>
 80002d6:	4282      	cmp	r2, r0
 80002d8:	f200 80f9 	bhi.w	80004ce <__udivmoddi4+0x2c6>
 80002dc:	1a84      	subs	r4, r0, r2
 80002de:	eb61 0303 	sbc.w	r3, r1, r3
 80002e2:	2001      	movs	r0, #1
 80002e4:	469e      	mov	lr, r3
 80002e6:	2d00      	cmp	r5, #0
 80002e8:	d0e0      	beq.n	80002ac <__udivmoddi4+0xa4>
 80002ea:	e9c5 4e00 	strd	r4, lr, [r5]
 80002ee:	e7dd      	b.n	80002ac <__udivmoddi4+0xa4>
 80002f0:	b902      	cbnz	r2, 80002f4 <__udivmoddi4+0xec>
 80002f2:	deff      	udf	#255	; 0xff
 80002f4:	fab2 f282 	clz	r2, r2
 80002f8:	2a00      	cmp	r2, #0
 80002fa:	f040 8092 	bne.w	8000422 <__udivmoddi4+0x21a>
 80002fe:	eba1 010c 	sub.w	r1, r1, ip
 8000302:	ea4f 471c 	mov.w	r7, ip, lsr #16
 8000306:	fa1f fe8c 	uxth.w	lr, ip
 800030a:	2601      	movs	r6, #1
 800030c:	0c20      	lsrs	r0, r4, #16
 800030e:	fbb1 f3f7 	udiv	r3, r1, r7
 8000312:	fb07 1113 	mls	r1, r7, r3, r1
 8000316:	ea40 4101 	orr.w	r1, r0, r1, lsl #16
 800031a:	fb0e f003 	mul.w	r0, lr, r3
 800031e:	4288      	cmp	r0, r1
 8000320:	d908      	bls.n	8000334 <__udivmoddi4+0x12c>
 8000322:	eb1c 0101 	adds.w	r1, ip, r1
 8000326:	f103 38ff 	add.w	r8, r3, #4294967295	; 0xffffffff
 800032a:	d202      	bcs.n	8000332 <__udivmoddi4+0x12a>
 800032c:	4288      	cmp	r0, r1
 800032e:	f200 80cb 	bhi.w	80004c8 <__udivmoddi4+0x2c0>
 8000332:	4643      	mov	r3, r8
 8000334:	1a09      	subs	r1, r1, r0
 8000336:	b2a4      	uxth	r4, r4
 8000338:	fbb1 f0f7 	udiv	r0, r1, r7
 800033c:	fb07 1110 	mls	r1, r7, r0, r1
 8000340:	ea44 4401 	orr.w	r4, r4, r1, lsl #16
 8000344:	fb0e fe00 	mul.w	lr, lr, r0
 8000348:	45a6      	cmp	lr, r4
 800034a:	d908      	bls.n	800035e <__udivmoddi4+0x156>
 800034c:	eb1c 0404 	adds.w	r4, ip, r4
 8000350:	f100 31ff 	add.w	r1, r0, #4294967295	; 0xffffffff
 8000354:	d202      	bcs.n	800035c <__udivmoddi4+0x154>
 8000356:	45a6      	cmp	lr, r4
 8000358:	f200 80bb 	bhi.w	80004d2 <__udivmoddi4+0x2ca>
 800035c:	4608      	mov	r0, r1
 800035e:	eba4 040e 	sub.w	r4, r4, lr
 8000362:	ea40 4003 	orr.w	r0, r0, r3, lsl #16
 8000366:	e79c      	b.n	80002a2 <__udivmoddi4+0x9a>
 8000368:	f1c6 0720 	rsb	r7, r6, #32
 800036c:	40b3      	lsls	r3, r6
 800036e:	fa22 fc07 	lsr.w	ip, r2, r7
 8000372:	ea4c 0c03 	orr.w	ip, ip, r3
 8000376:	fa20 f407 	lsr.w	r4, r0, r7
 800037a:	fa01 f306 	lsl.w	r3, r1, r6
 800037e:	431c      	orrs	r4, r3
 8000380:	40f9      	lsrs	r1, r7
 8000382:	ea4f 491c 	mov.w	r9, ip, lsr #16
 8000386:	fa00 f306 	lsl.w	r3, r0, r6
 800038a:	fbb1 f8f9 	udiv	r8, r1, r9
 800038e:	0c20      	lsrs	r0, r4, #16
 8000390:	fa1f fe8c 	uxth.w	lr, ip
 8000394:	fb09 1118 	mls	r1, r9, r8, r1
 8000398:	ea40 4101 	orr.w	r1, r0, r1, lsl #16
 800039c:	fb08 f00e 	mul.w	r0, r8, lr
 80003a0:	4288      	cmp	r0, r1
 80003a2:	fa02 f206 	lsl.w	r2, r2, r6
 80003a6:	d90b      	bls.n	80003c0 <__udivmoddi4+0x1b8>
 80003a8:	eb1c 0101 	adds.w	r1, ip, r1
 80003ac:	f108 3aff 	add.w	sl, r8, #4294967295	; 0xffffffff
 80003b0:	f080 8088 	bcs.w	80004c4 <__udivmoddi4+0x2bc>
 80003b4:	4288      	cmp	r0, r1
 80003b6:	f240 8085 	bls.w	80004c4 <__udivmoddi4+0x2bc>
 80003ba:	f1a8 0802 	sub.w	r8, r8, #2
 80003be:	4461      	add	r1, ip
 80003c0:	1a09      	subs	r1, r1, r0
 80003c2:	b2a4      	uxth	r4, r4
 80003c4:	fbb1 f0f9 	udiv	r0, r1, r9
 80003c8:	fb09 1110 	mls	r1, r9, r0, r1
 80003cc:	ea44 4101 	orr.w	r1, r4, r1, lsl #16
 80003d0:	fb00 fe0e 	mul.w	lr, r0, lr
 80003d4:	458e      	cmp	lr, r1
 80003d6:	d908      	bls.n	80003ea <__udivmoddi4+0x1e2>
 80003d8:	eb1c 0101 	adds.w	r1, ip, r1
 80003dc:	f100 34ff 	add.w	r4, r0, #4294967295	; 0xffffffff
 80003e0:	d26c      	bcs.n	80004bc <__udivmoddi4+0x2b4>
 80003e2:	458e      	cmp	lr, r1
 80003e4:	d96a      	bls.n	80004bc <__udivmoddi4+0x2b4>
 80003e6:	3802      	subs	r0, #2
 80003e8:	4461      	add	r1, ip
 80003ea:	ea40 4008 	orr.w	r0, r0, r8, lsl #16
 80003ee:	fba0 9402 	umull	r9, r4, r0, r2
 80003f2:	eba1 010e 	sub.w	r1, r1, lr
 80003f6:	42a1      	cmp	r1, r4
 80003f8:	46c8      	mov	r8, r9
 80003fa:	46a6      	mov	lr, r4
 80003fc:	d356      	bcc.n	80004ac <__udivmoddi4+0x2a4>
 80003fe:	d053      	beq.n	80004a8 <__udivmoddi4+0x2a0>
 8000400:	b15d      	cbz	r5, 800041a <__udivmoddi4+0x212>
 8000402:	ebb3 0208 	subs.w	r2, r3, r8
 8000406:	eb61 010e 	sbc.w	r1, r1, lr
 800040a:	fa01 f707 	lsl.w	r7, r1, r7
 800040e:	fa22 f306 	lsr.w	r3, r2, r6
 8000412:	40f1      	lsrs	r1, r6
 8000414:	431f      	orrs	r7, r3
 8000416:	e9c5 7100 	strd	r7, r1, [r5]
 800041a:	2600      	movs	r6, #0
 800041c:	4631      	mov	r1, r6
 800041e:	e8bd 87f0 	ldmia.w	sp!, {r4, r5, r6, r7, r8, r9, sl, pc}
 8000422:	f1c2 0320 	rsb	r3, r2, #32
 8000426:	40d8      	lsrs	r0, r3
 8000428:	fa0c fc02 	lsl.w	ip, ip, r2
 800042c:	fa21 f303 	lsr.w	r3, r1, r3
 8000430:	4091      	lsls	r1, r2
 8000432:	4301      	orrs	r1, r0
 8000434:	ea4f 471c 	mov.w	r7, ip, lsr #16
 8000438:	fa1f fe8c 	uxth.w	lr, ip
 800043c:	fbb3 f0f7 	udiv	r0, r3, r7
 8000440:	fb07 3610 	mls	r6, r7, r0, r3
 8000444:	0c0b      	lsrs	r3, r1, #16
 8000446:	ea43 4306 	orr.w	r3, r3, r6, lsl #16
 800044a:	fb00 f60e 	mul.w	r6, r0, lr
 800044e:	429e      	cmp	r6, r3
 8000450:	fa04 f402 	lsl.w	r4, r4, r2
 8000454:	d908      	bls.n	8000468 <__udivmoddi4+0x260>
 8000456:	eb1c 0303 	adds.w	r3, ip, r3
 800045a:	f100 38ff 	add.w	r8, r0, #4294967295	; 0xffffffff
 800045e:	d22f      	bcs.n	80004c0 <__udivmoddi4+0x2b8>
 8000460:	429e      	cmp	r6, r3
 8000462:	d92d      	bls.n	80004c0 <__udivmoddi4+0x2b8>
 8000464:	3802      	subs	r0, #2
 8000466:	4463      	add	r3, ip
 8000468:	1b9b      	subs	r3, r3, r6
 800046a:	b289      	uxth	r1, r1
 800046c:	fbb3 f6f7 	udiv	r6, r3, r7
 8000470:	fb07 3316 	mls	r3, r7, r6, r3
 8000474:	ea41 4103 	orr.w	r1, r1, r3, lsl #16
 8000478:	fb06 f30e 	mul.w	r3, r6, lr
 800047c:	428b      	cmp	r3, r1
 800047e:	d908      	bls.n	8000492 <__udivmoddi4+0x28a>
 8000480:	eb1c 0101 	adds.w	r1, ip, r1
 8000484:	f106 38ff 	add.w	r8, r6, #4294967295	; 0xffffffff
 8000488:	d216      	bcs.n	80004b8 <__udivmoddi4+0x2b0>
 800048a:	428b      	cmp	r3, r1
 800048c:	d914      	bls.n	80004b8 <__udivmoddi4+0x2b0>
 800048e:	3e02      	subs	r6, #2
 8000490:	4461      	add	r1, ip
 8000492:	1ac9      	subs	r1, r1, r3
 8000494:	ea46 4600 	orr.w	r6, r6, r0, lsl #16
 8000498:	e738      	b.n	800030c <__udivmoddi4+0x104>
 800049a:	462e      	mov	r6, r5
 800049c:	4628      	mov	r0, r5
 800049e:	e705      	b.n	80002ac <__udivmoddi4+0xa4>
 80004a0:	4606      	mov	r6, r0
 80004a2:	e6e3      	b.n	800026c <__udivmoddi4+0x64>
 80004a4:	4618      	mov	r0, r3
 80004a6:	e6f8      	b.n	800029a <__udivmoddi4+0x92>
 80004a8:	454b      	cmp	r3, r9
 80004aa:	d2a9      	bcs.n	8000400 <__udivmoddi4+0x1f8>
 80004ac:	ebb9 0802 	subs.w	r8, r9, r2
 80004b0:	eb64 0e0c 	sbc.w	lr, r4, ip
 80004b4:	3801      	subs	r0, #1
 80004b6:	e7a3      	b.n	8000400 <__udivmoddi4+0x1f8>
 80004b8:	4646      	mov	r6, r8
 80004ba:	e7ea      	b.n	8000492 <__udivmoddi4+0x28a>
 80004bc:	4620      	mov	r0, r4
 80004be:	e794      	b.n	80003ea <__udivmoddi4+0x1e2>
 80004c0:	4640      	mov	r0, r8
 80004c2:	e7d1      	b.n	8000468 <__udivmoddi4+0x260>
 80004c4:	46d0      	mov	r8, sl
 80004c6:	e77b      	b.n	80003c0 <__udivmoddi4+0x1b8>
 80004c8:	3b02      	subs	r3, #2
 80004ca:	4461      	add	r1, ip
 80004cc:	e732      	b.n	8000334 <__udivmoddi4+0x12c>
 80004ce:	4630      	mov	r0, r6
 80004d0:	e709      	b.n	80002e6 <__udivmoddi4+0xde>
 80004d2:	4464      	add	r4, ip
 80004d4:	3802      	subs	r0, #2
 80004d6:	e742      	b.n	800035e <__udivmoddi4+0x156>

080004d8 <__aeabi_idiv0>:
 80004d8:	4770      	bx	lr
 80004da:	bf00      	nop

080004dc <erase_app>:
 80004dc:	b510      	push	{r4, lr}
 80004de:	4604      	mov	r4, r0
 80004e0:	f000 f972 	bl	80007c8 <ll_flash_unlock>
 80004e4:	b14c      	cbz	r4, 80004fa <erase_app+0x1e>
 80004e6:	2006      	movs	r0, #6
 80004e8:	f000 f98c 	bl	8000804 <ll_flash_erase>
 80004ec:	2007      	movs	r0, #7
 80004ee:	f000 f989 	bl	8000804 <ll_flash_erase>
 80004f2:	e8bd 4010 	ldmia.w	sp!, {r4, lr}
 80004f6:	f000 b97b 	b.w	80007f0 <ll_flash_lock>
 80004fa:	2004      	movs	r0, #4
 80004fc:	f000 f982 	bl	8000804 <ll_flash_erase>
 8000500:	2003      	movs	r0, #3
 8000502:	f000 f97f 	bl	8000804 <ll_flash_erase>
 8000506:	2005      	movs	r0, #5
 8000508:	e7f1      	b.n	80004ee <erase_app+0x12>
	...

0800050c <jump2app>:
 800050c:	4b0a      	ldr	r3, [pc, #40]	; (8000538 <jump2app+0x2c>)
 800050e:	b510      	push	{r4, lr}
 8000510:	4c0a      	ldr	r4, [pc, #40]	; (800053c <jump2app+0x30>)
 8000512:	2800      	cmp	r0, #0
 8000514:	bf08      	it	eq
 8000516:	461c      	moveq	r4, r3
 8000518:	4b09      	ldr	r3, [pc, #36]	; (8000540 <jump2app+0x34>)
 800051a:	6822      	ldr	r2, [r4, #0]
 800051c:	4013      	ands	r3, r2
 800051e:	4a09      	ldr	r2, [pc, #36]	; (8000544 <jump2app+0x38>)
 8000520:	4293      	cmp	r3, r2
 8000522:	d108      	bne.n	8000536 <jump2app+0x2a>
 8000524:	f000 fb4c 	bl	8000bc0 <peripheral_deinit>
 8000528:	6863      	ldr	r3, [r4, #4]
 800052a:	681a      	ldr	r2, [r3, #0]
 800052c:	f382 8808 	msr	MSP, r2
 8000530:	e8bd 4010 	ldmia.w	sp!, {r4, lr}
 8000534:	4718      	bx	r3
 8000536:	bd10      	pop	{r4, pc}
 8000538:	0800c000 	.word	0x0800c000
 800053c:	08040000 	.word	0x08040000
 8000540:	2ffe0000 	.word	0x2ffe0000
 8000544:	20020000 	.word	0x20020000

08000548 <LL_GPIO_TogglePin.constprop.0>:
 8000548:	4905      	ldr	r1, [pc, #20]	; (8000560 <LL_GPIO_TogglePin.constprop.0+0x18>)
 800054a:	694b      	ldr	r3, [r1, #20]
 800054c:	041a      	lsls	r2, r3, #16
 800054e:	43db      	mvns	r3, r3
 8000550:	f402 1200 	and.w	r2, r2, #2097152	; 0x200000
 8000554:	f003 0320 	and.w	r3, r3, #32
 8000558:	4313      	orrs	r3, r2
 800055a:	618b      	str	r3, [r1, #24]
 800055c:	4770      	bx	lr
 800055e:	bf00      	nop
 8000560:	40020000 	.word	0x40020000

08000564 <successful_blink>:
 8000564:	b510      	push	{r4, lr}
 8000566:	2405      	movs	r4, #5
 8000568:	2032      	movs	r0, #50	; 0x32
 800056a:	f7ff ffed 	bl	8000548 <LL_GPIO_TogglePin.constprop.0>
 800056e:	f000 fc05 	bl	8000d7c <HAL_Delay>
 8000572:	3c01      	subs	r4, #1
 8000574:	d1f8      	bne.n	8000568 <successful_blink+0x4>
 8000576:	bd10      	pop	{r4, pc}

08000578 <upload_sequence>:
 8000578:	e92d 41f0 	stmdb	sp!, {r4, r5, r6, r7, r8, lr}
 800057c:	f5ad 5d41 	sub.w	sp, sp, #12352	; 0x3040
 8000580:	b08e      	sub	sp, #56	; 0x38
 8000582:	4606      	mov	r6, r0
 8000584:	4937      	ldr	r1, [pc, #220]	; (8000664 <upload_sequence+0xec>)
 8000586:	2201      	movs	r2, #1
 8000588:	f50d 5001 	add.w	r0, sp, #8256	; 0x2040
 800058c:	f001 feec 	bl	8002368 <f_mount>
 8000590:	b130      	cbz	r0, 80005a0 <upload_sequence+0x28>
 8000592:	f04f 30ff 	mov.w	r0, #4294967295	; 0xffffffff
 8000596:	f50d 5d41 	add.w	sp, sp, #12352	; 0x3040
 800059a:	b00e      	add	sp, #56	; 0x38
 800059c:	e8bd 81f0 	ldmia.w	sp!, {r4, r5, r6, r7, r8, pc}
 80005a0:	f7ff ffe0 	bl	8000564 <successful_blink>
 80005a4:	4b30      	ldr	r3, [pc, #192]	; (8000668 <upload_sequence+0xf0>)
 80005a6:	4931      	ldr	r1, [pc, #196]	; (800066c <upload_sequence+0xf4>)
 80005a8:	f50d 5080 	add.w	r0, sp, #4096	; 0x1000
 80005ac:	2201      	movs	r2, #1
 80005ae:	2e00      	cmp	r6, #0
 80005b0:	bf08      	it	eq
 80005b2:	4619      	moveq	r1, r3
 80005b4:	3014      	adds	r0, #20
 80005b6:	f001 ff01 	bl	80023bc <f_open>
 80005ba:	4604      	mov	r4, r0
 80005bc:	2800      	cmp	r0, #0
 80005be:	d1e8      	bne.n	8000592 <upload_sequence+0x1a>
 80005c0:	f7ff ffd0 	bl	8000564 <successful_blink>
 80005c4:	4630      	mov	r0, r6
 80005c6:	f7ff ff89 	bl	80004dc <erase_app>
 80005ca:	f7ff ffcb 	bl	8000564 <successful_blink>
 80005ce:	f640 72fc 	movw	r2, #4092	; 0xffc
 80005d2:	4621      	mov	r1, r4
 80005d4:	a806      	add	r0, sp, #24
 80005d6:	9403      	str	r4, [sp, #12]
 80005d8:	9405      	str	r4, [sp, #20]
 80005da:	9404      	str	r4, [sp, #16]
 80005dc:	f002 fd22 	bl	8003024 <memset>
 80005e0:	ab05      	add	r3, sp, #20
 80005e2:	9301      	str	r3, [sp, #4]
 80005e4:	f50d 5080 	add.w	r0, sp, #4096	; 0x1000
 80005e8:	9901      	ldr	r1, [sp, #4]
 80005ea:	ab04      	add	r3, sp, #16
 80005ec:	f44f 5280 	mov.w	r2, #4096	; 0x1000
 80005f0:	3014      	adds	r0, #20
 80005f2:	f002 fb01 	bl	8002bf8 <f_read>
 80005f6:	2800      	cmp	r0, #0
 80005f8:	d1cb      	bne.n	8000592 <upload_sequence+0x1a>
 80005fa:	f7ff ffa5 	bl	8000548 <LL_GPIO_TogglePin.constprop.0>
 80005fe:	9b04      	ldr	r3, [sp, #16]
 8000600:	9303      	str	r3, [sp, #12]
 8000602:	f8dd 800c 	ldr.w	r8, [sp, #12]
 8000606:	9f03      	ldr	r7, [sp, #12]
 8000608:	f000 f8de 	bl	80007c8 <ll_flash_unlock>
 800060c:	b2bf      	uxth	r7, r7
 800060e:	f104 6300 	add.w	r3, r4, #134217728	; 0x8000000
 8000612:	b1ee      	cbz	r6, 8000650 <upload_sequence+0xd8>
 8000614:	f503 2580 	add.w	r5, r3, #262144	; 0x40000
 8000618:	9901      	ldr	r1, [sp, #4]
 800061a:	463a      	mov	r2, r7
 800061c:	4628      	mov	r0, r5
 800061e:	f000 f919 	bl	8000854 <ll_flash_write>
 8000622:	2800      	cmp	r0, #0
 8000624:	dbf8      	blt.n	8000618 <upload_sequence+0xa0>
 8000626:	f000 f8e3 	bl	80007f0 <ll_flash_lock>
 800062a:	9b03      	ldr	r3, [sp, #12]
 800062c:	f5b8 5f80 	cmp.w	r8, #4096	; 0x1000
 8000630:	441c      	add	r4, r3
 8000632:	d2d7      	bcs.n	80005e4 <upload_sequence+0x6c>
 8000634:	f7ff ff96 	bl	8000564 <successful_blink>
 8000638:	f50d 5080 	add.w	r0, sp, #4096	; 0x1000
 800063c:	3014      	adds	r0, #20
 800063e:	f002 fc1f 	bl	8002e80 <f_close>
 8000642:	2200      	movs	r2, #0
 8000644:	490a      	ldr	r1, [pc, #40]	; (8000670 <upload_sequence+0xf8>)
 8000646:	4610      	mov	r0, r2
 8000648:	f001 fe8e 	bl	8002368 <f_mount>
 800064c:	2000      	movs	r0, #0
 800064e:	e7a2      	b.n	8000596 <upload_sequence+0x1e>
 8000650:	f503 4540 	add.w	r5, r3, #49152	; 0xc000
 8000654:	9901      	ldr	r1, [sp, #4]
 8000656:	463a      	mov	r2, r7
 8000658:	4628      	mov	r0, r5
 800065a:	f000 f8fb 	bl	8000854 <ll_flash_write>
 800065e:	2800      	cmp	r0, #0
 8000660:	dbf8      	blt.n	8000654 <upload_sequence+0xdc>
 8000662:	e7e0      	b.n	8000626 <upload_sequence+0xae>
 8000664:	08003066 	.word	0x08003066
 8000668:	08003059 	.word	0x08003059
 800066c:	0800304c 	.word	0x0800304c
 8000670:	08003067 	.word	0x08003067

08000674 <bootloader_mainloop>:
 8000674:	e92d 47f0 	stmdb	sp!, {r4, r5, r6, r7, r8, r9, sl, lr}
 8000678:	f000 fb7a 	bl	8000d70 <HAL_GetTick>
 800067c:	4d4b      	ldr	r5, [pc, #300]	; (80007ac <bootloader_mainloop+0x138>)
 800067e:	4e4c      	ldr	r6, [pc, #304]	; (80007b0 <bootloader_mainloop+0x13c>)
 8000680:	f8df 813c 	ldr.w	r8, [pc, #316]	; 80007c0 <bootloader_mainloop+0x14c>
 8000684:	4f4b      	ldr	r7, [pc, #300]	; (80007b4 <bootloader_mainloop+0x140>)
 8000686:	f8df 913c 	ldr.w	r9, [pc, #316]	; 80007c4 <bootloader_mainloop+0x150>
 800068a:	2300      	movs	r3, #0
 800068c:	2201      	movs	r2, #1
 800068e:	4604      	mov	r4, r0
 8000690:	702b      	strb	r3, [r5, #0]
 8000692:	7032      	strb	r2, [r6, #0]
 8000694:	f888 3000 	strb.w	r3, [r8]
 8000698:	f000 fb6a 	bl	8000d70 <HAL_GetTick>
 800069c:	1b00      	subs	r0, r0, r4
 800069e:	4c46      	ldr	r4, [pc, #280]	; (80007b8 <bootloader_mainloop+0x144>)
 80006a0:	683b      	ldr	r3, [r7, #0]
 80006a2:	6821      	ldr	r1, [r4, #0]
 80006a4:	782a      	ldrb	r2, [r5, #0]
 80006a6:	4403      	add	r3, r0
 80006a8:	4401      	add	r1, r0
 80006aa:	2a01      	cmp	r2, #1
 80006ac:	603b      	str	r3, [r7, #0]
 80006ae:	6021      	str	r1, [r4, #0]
 80006b0:	d031      	beq.n	8000716 <bootloader_mainloop+0xa2>
 80006b2:	2a02      	cmp	r2, #2
 80006b4:	d055      	beq.n	8000762 <bootloader_mainloop+0xee>
 80006b6:	b9aa      	cbnz	r2, 80006e4 <bootloader_mainloop+0x70>
 80006b8:	f242 7c10 	movw	ip, #10000	; 0x2710
 80006bc:	4561      	cmp	r1, ip
 80006be:	bf82      	ittt	hi
 80006c0:	6022      	strhi	r2, [r4, #0]
 80006c2:	2202      	movhi	r2, #2
 80006c4:	702a      	strbhi	r2, [r5, #0]
 80006c6:	f5b3 7f7a 	cmp.w	r3, #1000	; 0x3e8
 80006ca:	d903      	bls.n	80006d4 <bootloader_mainloop+0x60>
 80006cc:	f7ff ff3c 	bl	8000548 <LL_GPIO_TogglePin.constprop.0>
 80006d0:	2300      	movs	r3, #0
 80006d2:	603b      	str	r3, [r7, #0]
 80006d4:	f8d9 2010 	ldr.w	r2, [r9, #16]
 80006d8:	4938      	ldr	r1, [pc, #224]	; (80007bc <bootloader_mainloop+0x148>)
 80006da:	0492      	lsls	r2, r2, #18
 80006dc:	880b      	ldrh	r3, [r1, #0]
 80006de:	d408      	bmi.n	80006f2 <bootloader_mainloop+0x7e>
 80006e0:	4403      	add	r3, r0
 80006e2:	800b      	strh	r3, [r1, #0]
 80006e4:	f000 fb44 	bl	8000d70 <HAL_GetTick>
 80006e8:	4604      	mov	r4, r0
 80006ea:	2014      	movs	r0, #20
 80006ec:	f000 fb46 	bl	8000d7c <HAL_Delay>
 80006f0:	e7d2      	b.n	8000698 <bootloader_mainloop+0x24>
 80006f2:	f5b3 7f7a 	cmp.w	r3, #1000	; 0x3e8
 80006f6:	f04f 0200 	mov.w	r2, #0
 80006fa:	d305      	bcc.n	8000708 <bootloader_mainloop+0x94>
 80006fc:	2301      	movs	r3, #1
 80006fe:	6022      	str	r2, [r4, #0]
 8000700:	702b      	strb	r3, [r5, #0]
 8000702:	7032      	strb	r2, [r6, #0]
 8000704:	2300      	movs	r3, #0
 8000706:	e7ec      	b.n	80006e2 <bootloader_mainloop+0x6e>
 8000708:	2bc7      	cmp	r3, #199	; 0xc7
 800070a:	bf81      	itttt	hi
 800070c:	2301      	movhi	r3, #1
 800070e:	6022      	strhi	r2, [r4, #0]
 8000710:	702b      	strbhi	r3, [r5, #0]
 8000712:	7033      	strbhi	r3, [r6, #0]
 8000714:	e7f6      	b.n	8000704 <bootloader_mainloop+0x90>
 8000716:	f5b3 7ffa 	cmp.w	r3, #500	; 0x1f4
 800071a:	d903      	bls.n	8000724 <bootloader_mainloop+0xb0>
 800071c:	f7ff ff14 	bl	8000548 <LL_GPIO_TogglePin.constprop.0>
 8000720:	2300      	movs	r3, #0
 8000722:	603b      	str	r3, [r7, #0]
 8000724:	6823      	ldr	r3, [r4, #0]
 8000726:	f5b3 6ffa 	cmp.w	r3, #2000	; 0x7d0
 800072a:	d3db      	bcc.n	80006e4 <bootloader_mainloop+0x70>
 800072c:	7830      	ldrb	r0, [r6, #0]
 800072e:	f7ff ff23 	bl	8000578 <upload_sequence>
 8000732:	2800      	cmp	r0, #0
 8000734:	db04      	blt.n	8000740 <bootloader_mainloop+0xcc>
 8000736:	2300      	movs	r3, #0
 8000738:	6023      	str	r3, [r4, #0]
 800073a:	2302      	movs	r3, #2
 800073c:	702b      	strb	r3, [r5, #0]
 800073e:	e7d1      	b.n	80006e4 <bootloader_mainloop+0x70>
 8000740:	7833      	ldrb	r3, [r6, #0]
 8000742:	2b01      	cmp	r3, #1
 8000744:	bf18      	it	ne
 8000746:	2302      	movne	r3, #2
 8000748:	f888 3000 	strb.w	r3, [r8]
 800074c:	f04f 0a05 	mov.w	sl, #5
 8000750:	20c8      	movs	r0, #200	; 0xc8
 8000752:	f7ff fef9 	bl	8000548 <LL_GPIO_TogglePin.constprop.0>
 8000756:	f000 fb11 	bl	8000d7c <HAL_Delay>
 800075a:	f1ba 0a01 	subs.w	sl, sl, #1
 800075e:	d1f7      	bne.n	8000750 <bootloader_mainloop+0xdc>
 8000760:	e7e9      	b.n	8000736 <bootloader_mainloop+0xc2>
 8000762:	2bc8      	cmp	r3, #200	; 0xc8
 8000764:	d903      	bls.n	800076e <bootloader_mainloop+0xfa>
 8000766:	f7ff feef 	bl	8000548 <LL_GPIO_TogglePin.constprop.0>
 800076a:	2300      	movs	r3, #0
 800076c:	603b      	str	r3, [r7, #0]
 800076e:	6823      	ldr	r3, [r4, #0]
 8000770:	f5b3 6ffa 	cmp.w	r3, #2000	; 0x7d0
 8000774:	d3b6      	bcc.n	80006e4 <bootloader_mainloop+0x70>
 8000776:	f8d9 0010 	ldr.w	r0, [r9, #16]
 800077a:	f898 3000 	ldrb.w	r3, [r8]
 800077e:	f3c0 3040 	ubfx	r0, r0, #13, #1
 8000782:	2b01      	cmp	r3, #1
 8000784:	7030      	strb	r0, [r6, #0]
 8000786:	d007      	beq.n	8000798 <bootloader_mainloop+0x124>
 8000788:	2b02      	cmp	r3, #2
 800078a:	d00a      	beq.n	80007a2 <bootloader_mainloop+0x12e>
 800078c:	b90b      	cbnz	r3, 8000792 <bootloader_mainloop+0x11e>
 800078e:	f7ff febd 	bl	800050c <jump2app>
 8000792:	f000 fa66 	bl	8000c62 <HardFault_Handler>
 8000796:	e7a5      	b.n	80006e4 <bootloader_mainloop+0x70>
 8000798:	4618      	mov	r0, r3
 800079a:	f7ff fe9f 	bl	80004dc <erase_app>
 800079e:	2000      	movs	r0, #0
 80007a0:	e7f5      	b.n	800078e <bootloader_mainloop+0x11a>
 80007a2:	2000      	movs	r0, #0
 80007a4:	f7ff fe9a 	bl	80004dc <erase_app>
 80007a8:	2001      	movs	r0, #1
 80007aa:	e7f0      	b.n	800078e <bootloader_mainloop+0x11a>
 80007ac:	20000050 	.word	0x20000050
 80007b0:	20000044 	.word	0x20000044
 80007b4:	2000004c 	.word	0x2000004c
 80007b8:	20000054 	.word	0x20000054
 80007bc:	20000046 	.word	0x20000046
 80007c0:	20000048 	.word	0x20000048
 80007c4:	40020800 	.word	0x40020800

080007c8 <ll_flash_unlock>:
 80007c8:	4b07      	ldr	r3, [pc, #28]	; (80007e8 <ll_flash_unlock+0x20>)
 80007ca:	691a      	ldr	r2, [r3, #16]
 80007cc:	2a00      	cmp	r2, #0
 80007ce:	bfbf      	itttt	lt
 80007d0:	4a06      	ldrlt	r2, [pc, #24]	; (80007ec <ll_flash_unlock+0x24>)
 80007d2:	605a      	strlt	r2, [r3, #4]
 80007d4:	f102 3288 	addlt.w	r2, r2, #2290649224	; 0x88888888
 80007d8:	605a      	strlt	r2, [r3, #4]
 80007da:	bfbd      	ittte	lt
 80007dc:	6918      	ldrlt	r0, [r3, #16]
 80007de:	17c0      	asrlt	r0, r0, #31
 80007e0:	b240      	sxtblt	r0, r0
 80007e2:	2000      	movge	r0, #0
 80007e4:	4770      	bx	lr
 80007e6:	bf00      	nop
 80007e8:	40023c00 	.word	0x40023c00
 80007ec:	45670123 	.word	0x45670123

080007f0 <ll_flash_lock>:
 80007f0:	4a03      	ldr	r2, [pc, #12]	; (8000800 <ll_flash_lock+0x10>)
 80007f2:	6913      	ldr	r3, [r2, #16]
 80007f4:	f043 4300 	orr.w	r3, r3, #2147483648	; 0x80000000
 80007f8:	6113      	str	r3, [r2, #16]
 80007fa:	2000      	movs	r0, #0
 80007fc:	4770      	bx	lr
 80007fe:	bf00      	nop
 8000800:	40023c00 	.word	0x40023c00

08000804 <ll_flash_erase>:
 8000804:	4b12      	ldr	r3, [pc, #72]	; (8000850 <ll_flash_erase+0x4c>)
 8000806:	68da      	ldr	r2, [r3, #12]
 8000808:	6919      	ldr	r1, [r3, #16]
 800080a:	f421 7140 	bic.w	r1, r1, #768	; 0x300
 800080e:	6119      	str	r1, [r3, #16]
 8000810:	691a      	ldr	r2, [r3, #16]
 8000812:	611a      	str	r2, [r3, #16]
 8000814:	6919      	ldr	r1, [r3, #16]
 8000816:	f021 01f8 	bic.w	r1, r1, #248	; 0xf8
 800081a:	6119      	str	r1, [r3, #16]
 800081c:	691a      	ldr	r2, [r3, #16]
 800081e:	ea42 00c0 	orr.w	r0, r2, r0, lsl #3
 8000822:	f040 0002 	orr.w	r0, r0, #2
 8000826:	6118      	str	r0, [r3, #16]
 8000828:	691a      	ldr	r2, [r3, #16]
 800082a:	f442 3280 	orr.w	r2, r2, #65536	; 0x10000
 800082e:	611a      	str	r2, [r3, #16]
 8000830:	f240 32e9 	movw	r2, #1001	; 0x3e9
 8000834:	3a01      	subs	r2, #1
 8000836:	b292      	uxth	r2, r2
 8000838:	68d9      	ldr	r1, [r3, #12]
 800083a:	2a00      	cmp	r2, #0
 800083c:	d1fa      	bne.n	8000834 <ll_flash_erase+0x30>
 800083e:	68da      	ldr	r2, [r3, #12]
 8000840:	07d2      	lsls	r2, r2, #31
 8000842:	bf42      	ittt	mi
 8000844:	68da      	ldrmi	r2, [r3, #12]
 8000846:	f022 0201 	bicmi.w	r2, r2, #1
 800084a:	60da      	strmi	r2, [r3, #12]
 800084c:	2001      	movs	r0, #1
 800084e:	4770      	bx	lr
 8000850:	40023c00 	.word	0x40023c00

08000854 <ll_flash_write>:
 8000854:	4b0e      	ldr	r3, [pc, #56]	; (8000890 <ll_flash_write+0x3c>)
 8000856:	b530      	push	{r4, r5, lr}
 8000858:	68dc      	ldr	r4, [r3, #12]
 800085a:	691c      	ldr	r4, [r3, #16]
 800085c:	f424 7440 	bic.w	r4, r4, #768	; 0x300
 8000860:	611c      	str	r4, [r3, #16]
 8000862:	691c      	ldr	r4, [r3, #16]
 8000864:	611c      	str	r4, [r3, #16]
 8000866:	691c      	ldr	r4, [r3, #16]
 8000868:	f044 0401 	orr.w	r4, r4, #1
 800086c:	611c      	str	r4, [r3, #16]
 800086e:	440a      	add	r2, r1
 8000870:	1a40      	subs	r0, r0, r1
 8000872:	4291      	cmp	r1, r2
 8000874:	d105      	bne.n	8000882 <ll_flash_write+0x2e>
 8000876:	691a      	ldr	r2, [r3, #16]
 8000878:	f022 0201 	bic.w	r2, r2, #1
 800087c:	611a      	str	r2, [r3, #16]
 800087e:	2000      	movs	r0, #0
 8000880:	bd30      	pop	{r4, r5, pc}
 8000882:	1844      	adds	r4, r0, r1
 8000884:	f811 5b01 	ldrb.w	r5, [r1], #1
 8000888:	7025      	strb	r5, [r4, #0]
 800088a:	68dc      	ldr	r4, [r3, #12]
 800088c:	e7f1      	b.n	8000872 <ll_flash_write+0x1e>
 800088e:	bf00      	nop
 8000890:	40023c00 	.word	0x40023c00

08000894 <spi_send_and_read>:
 8000894:	b570      	push	{r4, r5, r6, lr}
 8000896:	4c12      	ldr	r4, [pc, #72]	; (80008e0 <spi_send_and_read+0x4c>)
 8000898:	6825      	ldr	r5, [r4, #0]
 800089a:	066d      	lsls	r5, r5, #25
 800089c:	bf5e      	ittt	pl
 800089e:	6825      	ldrpl	r5, [r4, #0]
 80008a0:	f045 0540 	orrpl.w	r5, r5, #64	; 0x40
 80008a4:	6025      	strpl	r5, [r4, #0]
 80008a6:	4d0e      	ldr	r5, [pc, #56]	; (80008e0 <spi_send_and_read+0x4c>)
 80008a8:	b213      	sxth	r3, r2
 80008aa:	2400      	movs	r4, #0
 80008ac:	2b00      	cmp	r3, #0
 80008ae:	dc03      	bgt.n	80008b8 <spi_send_and_read+0x24>
 80008b0:	42a2      	cmp	r2, r4
 80008b2:	dc01      	bgt.n	80008b8 <spi_send_and_read+0x24>
 80008b4:	2000      	movs	r0, #0
 80008b6:	bd70      	pop	{r4, r5, r6, pc}
 80008b8:	68ae      	ldr	r6, [r5, #8]
 80008ba:	07b6      	lsls	r6, r6, #30
 80008bc:	d507      	bpl.n	80008ce <spi_send_and_read+0x3a>
 80008be:	2b00      	cmp	r3, #0
 80008c0:	bfc1      	itttt	gt
 80008c2:	f810 6b01 	ldrbgt.w	r6, [r0], #1
 80008c6:	732e      	strbgt	r6, [r5, #12]
 80008c8:	f103 33ff 	addgt.w	r3, r3, #4294967295	; 0xffffffff
 80008cc:	b21b      	sxthgt	r3, r3
 80008ce:	68ae      	ldr	r6, [r5, #8]
 80008d0:	07f6      	lsls	r6, r6, #31
 80008d2:	bf41      	itttt	mi
 80008d4:	7b2e      	ldrbmi	r6, [r5, #12]
 80008d6:	f801 6b01 	strbmi.w	r6, [r1], #1
 80008da:	3401      	addmi	r4, #1
 80008dc:	b224      	sxthmi	r4, r4
 80008de:	e7e5      	b.n	80008ac <spi_send_and_read+0x18>
 80008e0:	40003800 	.word	0x40003800

080008e4 <LL_AHB1_GRP1_EnableClock>:
 80008e4:	4b05      	ldr	r3, [pc, #20]	; (80008fc <LL_AHB1_GRP1_EnableClock+0x18>)
 80008e6:	6b1a      	ldr	r2, [r3, #48]	; 0x30
 80008e8:	4302      	orrs	r2, r0
 80008ea:	631a      	str	r2, [r3, #48]	; 0x30
 80008ec:	6b1b      	ldr	r3, [r3, #48]	; 0x30
 80008ee:	b082      	sub	sp, #8
 80008f0:	4018      	ands	r0, r3
 80008f2:	9001      	str	r0, [sp, #4]
 80008f4:	9b01      	ldr	r3, [sp, #4]
 80008f6:	b002      	add	sp, #8
 80008f8:	4770      	bx	lr
 80008fa:	bf00      	nop
 80008fc:	40023800 	.word	0x40023800

08000900 <SystemClock_Config>:
 8000900:	4a2e      	ldr	r2, [pc, #184]	; (80009bc <SystemClock_Config+0xbc>)
 8000902:	6813      	ldr	r3, [r2, #0]
 8000904:	f023 0307 	bic.w	r3, r3, #7
 8000908:	f043 0302 	orr.w	r3, r3, #2
 800090c:	b510      	push	{r4, lr}
 800090e:	6013      	str	r3, [r2, #0]
 8000910:	6813      	ldr	r3, [r2, #0]
 8000912:	f003 0307 	and.w	r3, r3, #7
 8000916:	2b02      	cmp	r3, #2
 8000918:	d1fa      	bne.n	8000910 <SystemClock_Config+0x10>
 800091a:	4a29      	ldr	r2, [pc, #164]	; (80009c0 <SystemClock_Config+0xc0>)
 800091c:	6813      	ldr	r3, [r2, #0]
 800091e:	f443 4340 	orr.w	r3, r3, #49152	; 0xc000
 8000922:	6013      	str	r3, [r2, #0]
 8000924:	4b27      	ldr	r3, [pc, #156]	; (80009c4 <SystemClock_Config+0xc4>)
 8000926:	681a      	ldr	r2, [r3, #0]
 8000928:	f022 02f8 	bic.w	r2, r2, #248	; 0xf8
 800092c:	f042 0280 	orr.w	r2, r2, #128	; 0x80
 8000930:	601a      	str	r2, [r3, #0]
 8000932:	681a      	ldr	r2, [r3, #0]
 8000934:	f042 0201 	orr.w	r2, r2, #1
 8000938:	601a      	str	r2, [r3, #0]
 800093a:	681a      	ldr	r2, [r3, #0]
 800093c:	0791      	lsls	r1, r2, #30
 800093e:	d5fc      	bpl.n	800093a <SystemClock_Config+0x3a>
 8000940:	6859      	ldr	r1, [r3, #4]
 8000942:	4a21      	ldr	r2, [pc, #132]	; (80009c8 <SystemClock_Config+0xc8>)
 8000944:	400a      	ands	r2, r1
 8000946:	f442 5290 	orr.w	r2, r2, #4608	; 0x1200
 800094a:	f042 0208 	orr.w	r2, r2, #8
 800094e:	605a      	str	r2, [r3, #4]
 8000950:	685a      	ldr	r2, [r3, #4]
 8000952:	f422 3240 	bic.w	r2, r2, #196608	; 0x30000
 8000956:	605a      	str	r2, [r3, #4]
 8000958:	681a      	ldr	r2, [r3, #0]
 800095a:	f042 7280 	orr.w	r2, r2, #16777216	; 0x1000000
 800095e:	601a      	str	r2, [r3, #0]
 8000960:	4b18      	ldr	r3, [pc, #96]	; (80009c4 <SystemClock_Config+0xc4>)
 8000962:	681a      	ldr	r2, [r3, #0]
 8000964:	0192      	lsls	r2, r2, #6
 8000966:	d5fc      	bpl.n	8000962 <SystemClock_Config+0x62>
 8000968:	689a      	ldr	r2, [r3, #8]
 800096a:	4c16      	ldr	r4, [pc, #88]	; (80009c4 <SystemClock_Config+0xc4>)
 800096c:	f022 02f0 	bic.w	r2, r2, #240	; 0xf0
 8000970:	609a      	str	r2, [r3, #8]
 8000972:	689a      	ldr	r2, [r3, #8]
 8000974:	f422 52e0 	bic.w	r2, r2, #7168	; 0x1c00
 8000978:	f442 5280 	orr.w	r2, r2, #4096	; 0x1000
 800097c:	609a      	str	r2, [r3, #8]
 800097e:	689a      	ldr	r2, [r3, #8]
 8000980:	f422 4260 	bic.w	r2, r2, #57344	; 0xe000
 8000984:	609a      	str	r2, [r3, #8]
 8000986:	689a      	ldr	r2, [r3, #8]
 8000988:	f022 0203 	bic.w	r2, r2, #3
 800098c:	f042 0202 	orr.w	r2, r2, #2
 8000990:	609a      	str	r2, [r3, #8]
 8000992:	68a3      	ldr	r3, [r4, #8]
 8000994:	f003 030c 	and.w	r3, r3, #12
 8000998:	2b08      	cmp	r3, #8
 800099a:	d1fa      	bne.n	8000992 <SystemClock_Config+0x92>
 800099c:	480b      	ldr	r0, [pc, #44]	; (80009cc <SystemClock_Config+0xcc>)
 800099e:	f000 fc4d 	bl	800123c <LL_SetSystemCoreClock>
 80009a2:	2000      	movs	r0, #0
 80009a4:	f000 f99a 	bl	8000cdc <HAL_InitTick>
 80009a8:	b108      	cbz	r0, 80009ae <SystemClock_Config+0xae>
 80009aa:	b672      	cpsid	i
 80009ac:	e7fe      	b.n	80009ac <SystemClock_Config+0xac>
 80009ae:	f8d4 308c 	ldr.w	r3, [r4, #140]	; 0x8c
 80009b2:	f023 7380 	bic.w	r3, r3, #16777216	; 0x1000000
 80009b6:	f8c4 308c 	str.w	r3, [r4, #140]	; 0x8c
 80009ba:	bd10      	pop	{r4, pc}
 80009bc:	40023c00 	.word	0x40023c00
 80009c0:	40007000 	.word	0x40007000
 80009c4:	40023800 	.word	0x40023800
 80009c8:	ffbf8000 	.word	0xffbf8000
 80009cc:	044aa200 	.word	0x044aa200

080009d0 <main>:
 80009d0:	e92d 4880 	stmdb	sp!, {r7, fp, lr}
 80009d4:	b093      	sub	sp, #76	; 0x4c
 80009d6:	f000 f9a5 	bl	8000d24 <HAL_Init>
 80009da:	f7ff ff91 	bl	8000900 <SystemClock_Config>
 80009de:	2218      	movs	r2, #24
 80009e0:	2100      	movs	r1, #0
 80009e2:	a808      	add	r0, sp, #32
 80009e4:	f002 fb1e 	bl	8003024 <memset>
 80009e8:	2004      	movs	r0, #4
 80009ea:	f7ff ff7b 	bl	80008e4 <LL_AHB1_GRP1_EnableClock>
 80009ee:	2080      	movs	r0, #128	; 0x80
 80009f0:	f7ff ff78 	bl	80008e4 <LL_AHB1_GRP1_EnableClock>
 80009f4:	2001      	movs	r0, #1
 80009f6:	f7ff ff75 	bl	80008e4 <LL_AHB1_GRP1_EnableClock>
 80009fa:	2002      	movs	r0, #2
 80009fc:	4d6a      	ldr	r5, [pc, #424]	; (8000ba8 <main+0x1d8>)
 80009fe:	4f6b      	ldr	r7, [pc, #428]	; (8000bac <main+0x1dc>)
 8000a00:	f7ff ff70 	bl	80008e4 <LL_AHB1_GRP1_EnableClock>
 8000a04:	2008      	movs	r0, #8
 8000a06:	f7ff ff6d 	bl	80008e4 <LL_AHB1_GRP1_EnableClock>
 8000a0a:	f44f 1300 	mov.w	r3, #2097152	; 0x200000
 8000a0e:	2400      	movs	r4, #0
 8000a10:	61ab      	str	r3, [r5, #24]
 8000a12:	a908      	add	r1, sp, #32
 8000a14:	f44f 5300 	mov.w	r3, #8192	; 0x2000
 8000a18:	4865      	ldr	r0, [pc, #404]	; (8000bb0 <main+0x1e0>)
 8000a1a:	940c      	str	r4, [sp, #48]	; 0x30
 8000a1c:	e9cd 3408 	strd	r3, r4, [sp, #32]
 8000a20:	f000 fa18 	bl	8000e54 <LL_GPIO_Init>
 8000a24:	2320      	movs	r3, #32
 8000a26:	f04f 0b01 	mov.w	fp, #1
 8000a2a:	eb0d 0103 	add.w	r1, sp, r3
 8000a2e:	4628      	mov	r0, r5
 8000a30:	2602      	movs	r6, #2
 8000a32:	f04f 0803 	mov.w	r8, #3
 8000a36:	f04f 090c 	mov.w	r9, #12
 8000a3a:	e9cd 3b08 	strd	r3, fp, [sp, #32]
 8000a3e:	e9cd 440a 	strd	r4, r4, [sp, #40]	; 0x28
 8000a42:	940c      	str	r4, [sp, #48]	; 0x30
 8000a44:	f000 fa06 	bl	8000e54 <LL_GPIO_Init>
 8000a48:	f44f 7380 	mov.w	r3, #256	; 0x100
 8000a4c:	a908      	add	r1, sp, #32
 8000a4e:	4858      	ldr	r0, [pc, #352]	; (8000bb0 <main+0x1e0>)
 8000a50:	940c      	str	r4, [sp, #48]	; 0x30
 8000a52:	e9cd 3608 	strd	r3, r6, [sp, #32]
 8000a56:	e9cd 840a 	strd	r8, r4, [sp, #40]	; 0x28
 8000a5a:	f8cd 9034 	str.w	r9, [sp, #52]	; 0x34
 8000a5e:	f000 f9f9 	bl	8000e54 <LL_GPIO_Init>
 8000a62:	f44f 5380 	mov.w	r3, #4096	; 0x1000
 8000a66:	a908      	add	r1, sp, #32
 8000a68:	4628      	mov	r0, r5
 8000a6a:	e9cd 3408 	strd	r3, r4, [sp, #32]
 8000a6e:	940c      	str	r4, [sp, #48]	; 0x30
 8000a70:	f04f 0a04 	mov.w	sl, #4
 8000a74:	f000 f9ee 	bl	8000e54 <LL_GPIO_Init>
 8000a78:	a908      	add	r1, sp, #32
 8000a7a:	484e      	ldr	r0, [pc, #312]	; (8000bb4 <main+0x1e4>)
 8000a7c:	e9cd 840a 	strd	r8, r4, [sp, #40]	; 0x28
 8000a80:	e9cd 490c 	strd	r4, r9, [sp, #48]	; 0x30
 8000a84:	e9cd a608 	strd	sl, r6, [sp, #32]
 8000a88:	f000 f9e4 	bl	8000e54 <LL_GPIO_Init>
 8000a8c:	4621      	mov	r1, r4
 8000a8e:	221c      	movs	r2, #28
 8000a90:	a808      	add	r0, sp, #32
 8000a92:	f002 fac7 	bl	8003024 <memset>
 8000a96:	2218      	movs	r2, #24
 8000a98:	4621      	mov	r1, r4
 8000a9a:	a802      	add	r0, sp, #8
 8000a9c:	f002 fac2 	bl	8003024 <memset>
 8000aa0:	6c3b      	ldr	r3, [r7, #64]	; 0x40
 8000aa2:	f443 3300 	orr.w	r3, r3, #131072	; 0x20000
 8000aa6:	643b      	str	r3, [r7, #64]	; 0x40
 8000aa8:	6c3b      	ldr	r3, [r7, #64]	; 0x40
 8000aaa:	f403 3300 	and.w	r3, r3, #131072	; 0x20000
 8000aae:	4658      	mov	r0, fp
 8000ab0:	9300      	str	r3, [sp, #0]
 8000ab2:	9b00      	ldr	r3, [sp, #0]
 8000ab4:	a902      	add	r1, sp, #8
 8000ab6:	f7ff ff15 	bl	80008e4 <LL_AHB1_GRP1_EnableClock>
 8000aba:	2307      	movs	r3, #7
 8000abc:	4628      	mov	r0, r5
 8000abe:	f5a5 35de 	sub.w	r5, r5, #113664	; 0x1bc00
 8000ac2:	f04f 0b08 	mov.w	fp, #8
 8000ac6:	e9cd 8404 	strd	r8, r4, [sp, #16]
 8000aca:	9406      	str	r4, [sp, #24]
 8000acc:	9307      	str	r3, [sp, #28]
 8000ace:	e9cd 9602 	strd	r9, r6, [sp, #8]
 8000ad2:	f000 f9bf 	bl	8000e54 <LL_GPIO_Init>
 8000ad6:	f44f 33e1 	mov.w	r3, #115200	; 0x1c200
 8000ada:	a908      	add	r1, sp, #32
 8000adc:	4628      	mov	r0, r5
 8000ade:	e9cd 3408 	strd	r3, r4, [sp, #32]
 8000ae2:	e9cd 440a 	strd	r4, r4, [sp, #40]	; 0x28
 8000ae6:	e9cd b40c 	strd	fp, r4, [sp, #48]	; 0x30
 8000aea:	940e      	str	r4, [sp, #56]	; 0x38
 8000aec:	f000 fb34 	bl	8001158 <LL_USART_Init>
 8000af0:	692b      	ldr	r3, [r5, #16]
 8000af2:	f423 4390 	bic.w	r3, r3, #18432	; 0x4800
 8000af6:	612b      	str	r3, [r5, #16]
 8000af8:	696b      	ldr	r3, [r5, #20]
 8000afa:	f023 032a 	bic.w	r3, r3, #42	; 0x2a
 8000afe:	616b      	str	r3, [r5, #20]
 8000b00:	68eb      	ldr	r3, [r5, #12]
 8000b02:	f443 5300 	orr.w	r3, r3, #8192	; 0x2000
 8000b06:	60eb      	str	r3, [r5, #12]
 8000b08:	f000 fb9e 	bl	8001248 <MX_FATFS_Init>
 8000b0c:	4621      	mov	r1, r4
 8000b0e:	2228      	movs	r2, #40	; 0x28
 8000b10:	a808      	add	r0, sp, #32
 8000b12:	f002 fa87 	bl	8003024 <memset>
 8000b16:	2218      	movs	r2, #24
 8000b18:	4621      	mov	r1, r4
 8000b1a:	eb0d 000b 	add.w	r0, sp, fp
 8000b1e:	f002 fa81 	bl	8003024 <memset>
 8000b22:	6c3b      	ldr	r3, [r7, #64]	; 0x40
 8000b24:	f443 4380 	orr.w	r3, r3, #16384	; 0x4000
 8000b28:	643b      	str	r3, [r7, #64]	; 0x40
 8000b2a:	6c3b      	ldr	r3, [r7, #64]	; 0x40
 8000b2c:	f403 4380 	and.w	r3, r3, #16384	; 0x4000
 8000b30:	9301      	str	r3, [sp, #4]
 8000b32:	4650      	mov	r0, sl
 8000b34:	9b01      	ldr	r3, [sp, #4]
 8000b36:	f7ff fed5 	bl	80008e4 <LL_AHB1_GRP1_EnableClock>
 8000b3a:	4630      	mov	r0, r6
 8000b3c:	f7ff fed2 	bl	80008e4 <LL_AHB1_GRP1_EnableClock>
 8000b40:	2505      	movs	r5, #5
 8000b42:	eb0d 010b 	add.w	r1, sp, fp
 8000b46:	481a      	ldr	r0, [pc, #104]	; (8000bb0 <main+0x1e0>)
 8000b48:	9406      	str	r4, [sp, #24]
 8000b4a:	e9cd 8404 	strd	r8, r4, [sp, #16]
 8000b4e:	e9cd 9602 	strd	r9, r6, [sp, #8]
 8000b52:	9507      	str	r5, [sp, #28]
 8000b54:	f000 f97e 	bl	8000e54 <LL_GPIO_Init>
 8000b58:	f44f 53a0 	mov.w	r3, #5120	; 0x1400
 8000b5c:	eb0d 010b 	add.w	r1, sp, fp
 8000b60:	4815      	ldr	r0, [pc, #84]	; (8000bb8 <main+0x1e8>)
 8000b62:	e9cd 3602 	strd	r3, r6, [sp, #8]
 8000b66:	e9cd 8404 	strd	r8, r4, [sp, #16]
 8000b6a:	e9cd 4506 	strd	r4, r5, [sp, #24]
 8000b6e:	f000 f971 	bl	8000e54 <LL_GPIO_Init>
 8000b72:	f44f 7382 	mov.w	r3, #260	; 0x104
 8000b76:	e9cd 3409 	strd	r3, r4, [sp, #36]	; 0x24
 8000b7a:	e9cd 440b 	strd	r4, r4, [sp, #44]	; 0x2c
 8000b7e:	e9cd 440f 	strd	r4, r4, [sp, #60]	; 0x3c
 8000b82:	9408      	str	r4, [sp, #32]
 8000b84:	4c0d      	ldr	r4, [pc, #52]	; (8000bbc <main+0x1ec>)
 8000b86:	f44f 2380 	mov.w	r3, #262144	; 0x40000
 8000b8a:	e9cd 3b0d 	strd	r3, fp, [sp, #52]	; 0x34
 8000b8e:	a908      	add	r1, sp, #32
 8000b90:	230a      	movs	r3, #10
 8000b92:	4620      	mov	r0, r4
 8000b94:	9311      	str	r3, [sp, #68]	; 0x44
 8000b96:	f000 faaf 	bl	80010f8 <LL_SPI_Init>
 8000b9a:	6863      	ldr	r3, [r4, #4]
 8000b9c:	f023 0310 	bic.w	r3, r3, #16
 8000ba0:	6063      	str	r3, [r4, #4]
 8000ba2:	f7ff fd67 	bl	8000674 <bootloader_mainloop>
 8000ba6:	e7fe      	b.n	8000ba6 <main+0x1d6>
 8000ba8:	40020000 	.word	0x40020000
 8000bac:	40023800 	.word	0x40023800
 8000bb0:	40020800 	.word	0x40020800
 8000bb4:	40020c00 	.word	0x40020c00
 8000bb8:	40020400 	.word	0x40020400
 8000bbc:	40003800 	.word	0x40003800

08000bc0 <peripheral_deinit>:
 8000bc0:	f04f 22e0 	mov.w	r2, #3758153728	; 0xe000e000
 8000bc4:	b508      	push	{r3, lr}
 8000bc6:	6913      	ldr	r3, [r2, #16]
 8000bc8:	f023 0302 	bic.w	r3, r3, #2
 8000bcc:	6113      	str	r3, [r2, #16]
 8000bce:	4b13      	ldr	r3, [pc, #76]	; (8000c1c <peripheral_deinit+0x5c>)
 8000bd0:	6a1a      	ldr	r2, [r3, #32]
 8000bd2:	f442 3200 	orr.w	r2, r2, #131072	; 0x20000
 8000bd6:	621a      	str	r2, [r3, #32]
 8000bd8:	6a1a      	ldr	r2, [r3, #32]
 8000bda:	f442 4280 	orr.w	r2, r2, #16384	; 0x4000
 8000bde:	621a      	str	r2, [r3, #32]
 8000be0:	6c1a      	ldr	r2, [r3, #64]	; 0x40
 8000be2:	f422 4280 	bic.w	r2, r2, #16384	; 0x4000
 8000be6:	641a      	str	r2, [r3, #64]	; 0x40
 8000be8:	6c1a      	ldr	r2, [r3, #64]	; 0x40
 8000bea:	f422 3200 	bic.w	r2, r2, #131072	; 0x20000
 8000bee:	641a      	str	r2, [r3, #64]	; 0x40
 8000bf0:	6b1a      	ldr	r2, [r3, #48]	; 0x30
 8000bf2:	f022 0201 	bic.w	r2, r2, #1
 8000bf6:	631a      	str	r2, [r3, #48]	; 0x30
 8000bf8:	6b1a      	ldr	r2, [r3, #48]	; 0x30
 8000bfa:	f022 0202 	bic.w	r2, r2, #2
 8000bfe:	631a      	str	r2, [r3, #48]	; 0x30
 8000c00:	6b1a      	ldr	r2, [r3, #48]	; 0x30
 8000c02:	f022 0204 	bic.w	r2, r2, #4
 8000c06:	631a      	str	r2, [r3, #48]	; 0x30
 8000c08:	691a      	ldr	r2, [r3, #16]
 8000c0a:	611a      	str	r2, [r3, #16]
 8000c0c:	f000 f9c0 	bl	8000f90 <LL_RCC_DeInit>
 8000c10:	4a03      	ldr	r2, [pc, #12]	; (8000c20 <peripheral_deinit+0x60>)
 8000c12:	6a53      	ldr	r3, [r2, #36]	; 0x24
 8000c14:	f423 23e0 	bic.w	r3, r3, #458752	; 0x70000
 8000c18:	6253      	str	r3, [r2, #36]	; 0x24
 8000c1a:	bd08      	pop	{r3, pc}
 8000c1c:	40023800 	.word	0x40023800
 8000c20:	e000ed00 	.word	0xe000ed00

08000c24 <HAL_MspInit>:
 8000c24:	b082      	sub	sp, #8
 8000c26:	4b0d      	ldr	r3, [pc, #52]	; (8000c5c <HAL_MspInit+0x38>)
 8000c28:	2100      	movs	r1, #0
 8000c2a:	9100      	str	r1, [sp, #0]
 8000c2c:	6c5a      	ldr	r2, [r3, #68]	; 0x44
 8000c2e:	f442 4280 	orr.w	r2, r2, #16384	; 0x4000
 8000c32:	645a      	str	r2, [r3, #68]	; 0x44
 8000c34:	6c5a      	ldr	r2, [r3, #68]	; 0x44
 8000c36:	f402 4280 	and.w	r2, r2, #16384	; 0x4000
 8000c3a:	9200      	str	r2, [sp, #0]
 8000c3c:	9a00      	ldr	r2, [sp, #0]
 8000c3e:	9101      	str	r1, [sp, #4]
 8000c40:	6c1a      	ldr	r2, [r3, #64]	; 0x40
 8000c42:	f042 5280 	orr.w	r2, r2, #268435456	; 0x10000000
 8000c46:	641a      	str	r2, [r3, #64]	; 0x40
 8000c48:	6c1b      	ldr	r3, [r3, #64]	; 0x40
 8000c4a:	f003 5380 	and.w	r3, r3, #268435456	; 0x10000000
 8000c4e:	9301      	str	r3, [sp, #4]
 8000c50:	9b01      	ldr	r3, [sp, #4]
 8000c52:	2007      	movs	r0, #7
 8000c54:	b002      	add	sp, #8
 8000c56:	f000 b8a5 	b.w	8000da4 <HAL_NVIC_SetPriorityGrouping>
 8000c5a:	bf00      	nop
 8000c5c:	40023800 	.word	0x40023800

08000c60 <NMI_Handler>:
 8000c60:	e7fe      	b.n	8000c60 <NMI_Handler>

08000c62 <HardFault_Handler>:
 8000c62:	e7fe      	b.n	8000c62 <HardFault_Handler>

08000c64 <MemManage_Handler>:
 8000c64:	e7fe      	b.n	8000c64 <MemManage_Handler>

08000c66 <BusFault_Handler>:
 8000c66:	e7fe      	b.n	8000c66 <BusFault_Handler>

08000c68 <UsageFault_Handler>:
 8000c68:	e7fe      	b.n	8000c68 <UsageFault_Handler>

08000c6a <SVC_Handler>:
 8000c6a:	4770      	bx	lr

08000c6c <DebugMon_Handler>:
 8000c6c:	4770      	bx	lr

08000c6e <PendSV_Handler>:
 8000c6e:	4770      	bx	lr

08000c70 <SysTick_Handler>:
 8000c70:	f000 b872 	b.w	8000d58 <HAL_IncTick>

08000c74 <SystemInit>:
 8000c74:	4a03      	ldr	r2, [pc, #12]	; (8000c84 <SystemInit+0x10>)
 8000c76:	f8d2 3088 	ldr.w	r3, [r2, #136]	; 0x88
 8000c7a:	f443 0370 	orr.w	r3, r3, #15728640	; 0xf00000
 8000c7e:	f8c2 3088 	str.w	r3, [r2, #136]	; 0x88
 8000c82:	4770      	bx	lr
 8000c84:	e000ed00 	.word	0xe000ed00

08000c88 <Reset_Handler>:

    .section  .text.Reset_Handler
  .weak  Reset_Handler
  .type  Reset_Handler, %function
Reset_Handler:  
  ldr   sp, =_estack    		 /* set stack pointer */
 8000c88:	f8df d034 	ldr.w	sp, [pc, #52]	; 8000cc0 <LoopFillZerobss+0x12>

/* Copy the data segment initializers from flash to SRAM */  
  ldr r0, =_sdata
 8000c8c:	480d      	ldr	r0, [pc, #52]	; (8000cc4 <LoopFillZerobss+0x16>)
  ldr r1, =_edata
 8000c8e:	490e      	ldr	r1, [pc, #56]	; (8000cc8 <LoopFillZerobss+0x1a>)
  ldr r2, =_sidata
 8000c90:	4a0e      	ldr	r2, [pc, #56]	; (8000ccc <LoopFillZerobss+0x1e>)
  movs r3, #0
 8000c92:	2300      	movs	r3, #0
  b LoopCopyDataInit
 8000c94:	e002      	b.n	8000c9c <LoopCopyDataInit>

08000c96 <CopyDataInit>:

CopyDataInit:
  ldr r4, [r2, r3]
 8000c96:	58d4      	ldr	r4, [r2, r3]
  str r4, [r0, r3]
 8000c98:	50c4      	str	r4, [r0, r3]
  adds r3, r3, #4
 8000c9a:	3304      	adds	r3, #4

08000c9c <LoopCopyDataInit>:

LoopCopyDataInit:
  adds r4, r0, r3
 8000c9c:	18c4      	adds	r4, r0, r3
  cmp r4, r1
 8000c9e:	428c      	cmp	r4, r1
  bcc CopyDataInit
 8000ca0:	d3f9      	bcc.n	8000c96 <CopyDataInit>
  
/* Zero fill the bss segment. */
  ldr r2, =_sbss
 8000ca2:	4a0b      	ldr	r2, [pc, #44]	; (8000cd0 <LoopFillZerobss+0x22>)
  ldr r4, =_ebss
 8000ca4:	4c0b      	ldr	r4, [pc, #44]	; (8000cd4 <LoopFillZerobss+0x26>)
  movs r3, #0
 8000ca6:	2300      	movs	r3, #0
  b LoopFillZerobss
 8000ca8:	e001      	b.n	8000cae <LoopFillZerobss>

08000caa <FillZerobss>:

FillZerobss:
  str  r3, [r2]
 8000caa:	6013      	str	r3, [r2, #0]
  adds r2, r2, #4
 8000cac:	3204      	adds	r2, #4

08000cae <LoopFillZerobss>:

LoopFillZerobss:
  cmp r2, r4
 8000cae:	42a2      	cmp	r2, r4
  bcc FillZerobss
 8000cb0:	d3fb      	bcc.n	8000caa <FillZerobss>

/* Call the clock system initialization function.*/
  bl  SystemInit   
 8000cb2:	f7ff ffdf 	bl	8000c74 <SystemInit>
/* Call static constructors */
    bl __libc_init_array
 8000cb6:	f002 f991 	bl	8002fdc <__libc_init_array>
/* Call the application's entry point.*/
  bl  main
 8000cba:	f7ff fe89 	bl	80009d0 <main>
  bx  lr    
 8000cbe:	4770      	bx	lr
  ldr   sp, =_estack    		 /* set stack pointer */
 8000cc0:	20020000 	.word	0x20020000
  ldr r0, =_sdata
 8000cc4:	20000000 	.word	0x20000000
  ldr r1, =_edata
 8000cc8:	20000028 	.word	0x20000028
  ldr r2, =_sidata
 8000ccc:	080034dc 	.word	0x080034dc
  ldr r2, =_sbss
 8000cd0:	20000028 	.word	0x20000028
  ldr r4, =_ebss
 8000cd4:	200002a0 	.word	0x200002a0

08000cd8 <ADC_IRQHandler>:
 * @retval None       
*/
    .section  .text.Default_Handler,"ax",%progbits
Default_Handler:
Infinite_Loop:
  b  Infinite_Loop
 8000cd8:	e7fe      	b.n	8000cd8 <ADC_IRQHandler>
	...

08000cdc <HAL_InitTick>:
 8000cdc:	b538      	push	{r3, r4, r5, lr}
 8000cde:	4a0e      	ldr	r2, [pc, #56]	; (8000d18 <HAL_InitTick+0x3c>)
 8000ce0:	4b0e      	ldr	r3, [pc, #56]	; (8000d1c <HAL_InitTick+0x40>)
 8000ce2:	4605      	mov	r5, r0
 8000ce4:	7818      	ldrb	r0, [r3, #0]
 8000ce6:	f44f 737a 	mov.w	r3, #1000	; 0x3e8
 8000cea:	fbb3 f3f0 	udiv	r3, r3, r0
 8000cee:	6810      	ldr	r0, [r2, #0]
 8000cf0:	fbb0 f0f3 	udiv	r0, r0, r3
 8000cf4:	f000 f89a 	bl	8000e2c <HAL_SYSTICK_Config>
 8000cf8:	4604      	mov	r4, r0
 8000cfa:	b958      	cbnz	r0, 8000d14 <HAL_InitTick+0x38>
 8000cfc:	2d0f      	cmp	r5, #15
 8000cfe:	d809      	bhi.n	8000d14 <HAL_InitTick+0x38>
 8000d00:	4602      	mov	r2, r0
 8000d02:	4629      	mov	r1, r5
 8000d04:	f04f 30ff 	mov.w	r0, #4294967295	; 0xffffffff
 8000d08:	f000 f85e 	bl	8000dc8 <HAL_NVIC_SetPriority>
 8000d0c:	4b04      	ldr	r3, [pc, #16]	; (8000d20 <HAL_InitTick+0x44>)
 8000d0e:	4620      	mov	r0, r4
 8000d10:	601d      	str	r5, [r3, #0]
 8000d12:	bd38      	pop	{r3, r4, r5, pc}
 8000d14:	2001      	movs	r0, #1
 8000d16:	e7fc      	b.n	8000d12 <HAL_InitTick+0x36>
 8000d18:	20000000 	.word	0x20000000
 8000d1c:	20000004 	.word	0x20000004
 8000d20:	20000008 	.word	0x20000008

08000d24 <HAL_Init>:
 8000d24:	b508      	push	{r3, lr}
 8000d26:	4b0b      	ldr	r3, [pc, #44]	; (8000d54 <HAL_Init+0x30>)
 8000d28:	681a      	ldr	r2, [r3, #0]
 8000d2a:	f442 7200 	orr.w	r2, r2, #512	; 0x200
 8000d2e:	601a      	str	r2, [r3, #0]
 8000d30:	681a      	ldr	r2, [r3, #0]
 8000d32:	f442 6280 	orr.w	r2, r2, #1024	; 0x400
 8000d36:	601a      	str	r2, [r3, #0]
 8000d38:	681a      	ldr	r2, [r3, #0]
 8000d3a:	f442 7280 	orr.w	r2, r2, #256	; 0x100
 8000d3e:	601a      	str	r2, [r3, #0]
 8000d40:	2003      	movs	r0, #3
 8000d42:	f000 f82f 	bl	8000da4 <HAL_NVIC_SetPriorityGrouping>
 8000d46:	2000      	movs	r0, #0
 8000d48:	f7ff ffc8 	bl	8000cdc <HAL_InitTick>
 8000d4c:	f7ff ff6a 	bl	8000c24 <HAL_MspInit>
 8000d50:	2000      	movs	r0, #0
 8000d52:	bd08      	pop	{r3, pc}
 8000d54:	40023c00 	.word	0x40023c00

08000d58 <HAL_IncTick>:
 8000d58:	4a03      	ldr	r2, [pc, #12]	; (8000d68 <HAL_IncTick+0x10>)
 8000d5a:	4b04      	ldr	r3, [pc, #16]	; (8000d6c <HAL_IncTick+0x14>)
 8000d5c:	6811      	ldr	r1, [r2, #0]
 8000d5e:	781b      	ldrb	r3, [r3, #0]
 8000d60:	440b      	add	r3, r1
 8000d62:	6013      	str	r3, [r2, #0]
 8000d64:	4770      	bx	lr
 8000d66:	bf00      	nop
 8000d68:	20000058 	.word	0x20000058
 8000d6c:	20000004 	.word	0x20000004

08000d70 <HAL_GetTick>:
 8000d70:	4b01      	ldr	r3, [pc, #4]	; (8000d78 <HAL_GetTick+0x8>)
 8000d72:	6818      	ldr	r0, [r3, #0]
 8000d74:	4770      	bx	lr
 8000d76:	bf00      	nop
 8000d78:	20000058 	.word	0x20000058

08000d7c <HAL_Delay>:
 8000d7c:	b538      	push	{r3, r4, r5, lr}
 8000d7e:	4604      	mov	r4, r0
 8000d80:	f7ff fff6 	bl	8000d70 <HAL_GetTick>
 8000d84:	1c63      	adds	r3, r4, #1
 8000d86:	bf1c      	itt	ne
 8000d88:	4b05      	ldrne	r3, [pc, #20]	; (8000da0 <HAL_Delay+0x24>)
 8000d8a:	781b      	ldrbne	r3, [r3, #0]
 8000d8c:	4605      	mov	r5, r0
 8000d8e:	bf18      	it	ne
 8000d90:	18e4      	addne	r4, r4, r3
 8000d92:	f7ff ffed 	bl	8000d70 <HAL_GetTick>
 8000d96:	1b43      	subs	r3, r0, r5
 8000d98:	42a3      	cmp	r3, r4
 8000d9a:	d3fa      	bcc.n	8000d92 <HAL_Delay+0x16>
 8000d9c:	bd38      	pop	{r3, r4, r5, pc}
 8000d9e:	bf00      	nop
 8000da0:	20000004 	.word	0x20000004

08000da4 <HAL_NVIC_SetPriorityGrouping>:
 8000da4:	4907      	ldr	r1, [pc, #28]	; (8000dc4 <HAL_NVIC_SetPriorityGrouping+0x20>)
 8000da6:	68ca      	ldr	r2, [r1, #12]
 8000da8:	f422 62e0 	bic.w	r2, r2, #1792	; 0x700
 8000dac:	0203      	lsls	r3, r0, #8
 8000dae:	0412      	lsls	r2, r2, #16
 8000db0:	f403 63e0 	and.w	r3, r3, #1792	; 0x700
 8000db4:	0c12      	lsrs	r2, r2, #16
 8000db6:	4313      	orrs	r3, r2
 8000db8:	f043 63bf 	orr.w	r3, r3, #100139008	; 0x5f80000
 8000dbc:	f443 3300 	orr.w	r3, r3, #131072	; 0x20000
 8000dc0:	60cb      	str	r3, [r1, #12]
 8000dc2:	4770      	bx	lr
 8000dc4:	e000ed00 	.word	0xe000ed00

08000dc8 <HAL_NVIC_SetPriority>:
 8000dc8:	4b16      	ldr	r3, [pc, #88]	; (8000e24 <HAL_NVIC_SetPriority+0x5c>)
 8000dca:	b530      	push	{r4, r5, lr}
 8000dcc:	68dc      	ldr	r4, [r3, #12]
 8000dce:	f3c4 2402 	ubfx	r4, r4, #8, #3
 8000dd2:	f1c4 0507 	rsb	r5, r4, #7
 8000dd6:	1d23      	adds	r3, r4, #4
 8000dd8:	2d04      	cmp	r5, #4
 8000dda:	bf28      	it	cs
 8000ddc:	2504      	movcs	r5, #4
 8000dde:	2b06      	cmp	r3, #6
 8000de0:	f04f 33ff 	mov.w	r3, #4294967295	; 0xffffffff
 8000de4:	bf8c      	ite	hi
 8000de6:	3c03      	subhi	r4, #3
 8000de8:	2400      	movls	r4, #0
 8000dea:	fa03 f505 	lsl.w	r5, r3, r5
 8000dee:	ea21 0105 	bic.w	r1, r1, r5
 8000df2:	40a3      	lsls	r3, r4
 8000df4:	ea22 0203 	bic.w	r2, r2, r3
 8000df8:	40a1      	lsls	r1, r4
 8000dfa:	2800      	cmp	r0, #0
 8000dfc:	ea41 0302 	orr.w	r3, r1, r2
 8000e00:	bfac      	ite	ge
 8000e02:	f100 4060 	addge.w	r0, r0, #3758096384	; 0xe0000000
 8000e06:	4a08      	ldrlt	r2, [pc, #32]	; (8000e28 <HAL_NVIC_SetPriority+0x60>)
 8000e08:	ea4f 1303 	mov.w	r3, r3, lsl #4
 8000e0c:	bfb8      	it	lt
 8000e0e:	f000 000f 	andlt.w	r0, r0, #15
 8000e12:	b2db      	uxtb	r3, r3
 8000e14:	bfaa      	itet	ge
 8000e16:	f500 4061 	addge.w	r0, r0, #57600	; 0xe100
 8000e1a:	5413      	strblt	r3, [r2, r0]
 8000e1c:	f880 3300 	strbge.w	r3, [r0, #768]	; 0x300
 8000e20:	bd30      	pop	{r4, r5, pc}
 8000e22:	bf00      	nop
 8000e24:	e000ed00 	.word	0xe000ed00
 8000e28:	e000ed14 	.word	0xe000ed14

08000e2c <HAL_SYSTICK_Config>:
 8000e2c:	3801      	subs	r0, #1
 8000e2e:	f1b0 7f80 	cmp.w	r0, #16777216	; 0x1000000
 8000e32:	d20b      	bcs.n	8000e4c <HAL_SYSTICK_Config+0x20>
 8000e34:	f04f 23e0 	mov.w	r3, #3758153728	; 0xe000e000
 8000e38:	4a05      	ldr	r2, [pc, #20]	; (8000e50 <HAL_SYSTICK_Config+0x24>)
 8000e3a:	6158      	str	r0, [r3, #20]
 8000e3c:	21f0      	movs	r1, #240	; 0xf0
 8000e3e:	f882 1023 	strb.w	r1, [r2, #35]	; 0x23
 8000e42:	2000      	movs	r0, #0
 8000e44:	2207      	movs	r2, #7
 8000e46:	6198      	str	r0, [r3, #24]
 8000e48:	611a      	str	r2, [r3, #16]
 8000e4a:	4770      	bx	lr
 8000e4c:	2001      	movs	r0, #1
 8000e4e:	4770      	bx	lr
 8000e50:	e000ed00 	.word	0xe000ed00

08000e54 <LL_GPIO_Init>:
 8000e54:	e92d 47f0 	stmdb	sp!, {r4, r5, r6, r7, r8, r9, sl, lr}
 8000e58:	4602      	mov	r2, r0
 8000e5a:	680d      	ldr	r5, [r1, #0]
 8000e5c:	fa95 f4a5 	rbit	r4, r5
 8000e60:	f04f 0e01 	mov.w	lr, #1
 8000e64:	fab4 f484 	clz	r4, r4
 8000e68:	2603      	movs	r6, #3
 8000e6a:	f04f 0c0f 	mov.w	ip, #15
 8000e6e:	fa35 f004 	lsrs.w	r0, r5, r4
 8000e72:	d101      	bne.n	8000e78 <LL_GPIO_Init+0x24>
 8000e74:	e8bd 87f0 	ldmia.w	sp!, {r4, r5, r6, r7, r8, r9, sl, pc}
 8000e78:	fa0e f304 	lsl.w	r3, lr, r4
 8000e7c:	402b      	ands	r3, r5
 8000e7e:	d06d      	beq.n	8000f5c <LL_GPIO_Init+0x108>
 8000e80:	6848      	ldr	r0, [r1, #4]
 8000e82:	1e47      	subs	r7, r0, #1
 8000e84:	2f01      	cmp	r7, #1
 8000e86:	d81e      	bhi.n	8000ec6 <LL_GPIO_Init+0x72>
 8000e88:	f8d2 8008 	ldr.w	r8, [r2, #8]
 8000e8c:	fa93 f7a3 	rbit	r7, r3
 8000e90:	fab7 f787 	clz	r7, r7
 8000e94:	fa93 f9a3 	rbit	r9, r3
 8000e98:	007f      	lsls	r7, r7, #1
 8000e9a:	fa06 f707 	lsl.w	r7, r6, r7
 8000e9e:	ea28 0807 	bic.w	r8, r8, r7
 8000ea2:	fab9 f989 	clz	r9, r9
 8000ea6:	688f      	ldr	r7, [r1, #8]
 8000ea8:	ea4f 0949 	mov.w	r9, r9, lsl #1
 8000eac:	fa07 f709 	lsl.w	r7, r7, r9
 8000eb0:	ea48 0707 	orr.w	r7, r8, r7
 8000eb4:	6097      	str	r7, [r2, #8]
 8000eb6:	6857      	ldr	r7, [r2, #4]
 8000eb8:	ea27 0803 	bic.w	r8, r7, r3
 8000ebc:	68cf      	ldr	r7, [r1, #12]
 8000ebe:	435f      	muls	r7, r3
 8000ec0:	ea48 0707 	orr.w	r7, r8, r7
 8000ec4:	6057      	str	r7, [r2, #4]
 8000ec6:	f8d2 800c 	ldr.w	r8, [r2, #12]
 8000eca:	fa93 f7a3 	rbit	r7, r3
 8000ece:	fab7 f787 	clz	r7, r7
 8000ed2:	fa93 f9a3 	rbit	r9, r3
 8000ed6:	007f      	lsls	r7, r7, #1
 8000ed8:	fa06 f707 	lsl.w	r7, r6, r7
 8000edc:	ea28 0807 	bic.w	r8, r8, r7
 8000ee0:	fab9 f989 	clz	r9, r9
 8000ee4:	690f      	ldr	r7, [r1, #16]
 8000ee6:	ea4f 0949 	mov.w	r9, r9, lsl #1
 8000eea:	fa07 f709 	lsl.w	r7, r7, r9
 8000eee:	ea48 0707 	orr.w	r7, r8, r7
 8000ef2:	2802      	cmp	r0, #2
 8000ef4:	60d7      	str	r7, [r2, #12]
 8000ef6:	d11d      	bne.n	8000f34 <LL_GPIO_Init+0xe0>
 8000ef8:	fa93 f7a3 	rbit	r7, r3
 8000efc:	fab7 f787 	clz	r7, r7
 8000f00:	2f07      	cmp	r7, #7
 8000f02:	f8d1 9014 	ldr.w	r9, [r1, #20]
 8000f06:	dc2b      	bgt.n	8000f60 <LL_GPIO_Init+0x10c>
 8000f08:	f8d2 a020 	ldr.w	sl, [r2, #32]
 8000f0c:	fa93 f8a3 	rbit	r8, r3
 8000f10:	fab8 f888 	clz	r8, r8
 8000f14:	fa93 f7a3 	rbit	r7, r3
 8000f18:	fab7 f787 	clz	r7, r7
 8000f1c:	ea4f 0888 	mov.w	r8, r8, lsl #2
 8000f20:	fa0c f808 	lsl.w	r8, ip, r8
 8000f24:	00bf      	lsls	r7, r7, #2
 8000f26:	ea2a 0808 	bic.w	r8, sl, r8
 8000f2a:	fa09 f707 	lsl.w	r7, r9, r7
 8000f2e:	ea48 0707 	orr.w	r7, r8, r7
 8000f32:	6217      	str	r7, [r2, #32]
 8000f34:	f8d2 8000 	ldr.w	r8, [r2]
 8000f38:	fa93 f7a3 	rbit	r7, r3
 8000f3c:	fab7 f787 	clz	r7, r7
 8000f40:	fa93 f3a3 	rbit	r3, r3
 8000f44:	fab3 f383 	clz	r3, r3
 8000f48:	007f      	lsls	r7, r7, #1
 8000f4a:	fa06 f707 	lsl.w	r7, r6, r7
 8000f4e:	005b      	lsls	r3, r3, #1
 8000f50:	ea28 0707 	bic.w	r7, r8, r7
 8000f54:	fa00 f303 	lsl.w	r3, r0, r3
 8000f58:	433b      	orrs	r3, r7
 8000f5a:	6013      	str	r3, [r2, #0]
 8000f5c:	3401      	adds	r4, #1
 8000f5e:	e786      	b.n	8000e6e <LL_GPIO_Init+0x1a>
 8000f60:	f8d2 a024 	ldr.w	sl, [r2, #36]	; 0x24
 8000f64:	0a1f      	lsrs	r7, r3, #8
 8000f66:	fa97 f8a7 	rbit	r8, r7
 8000f6a:	fab8 f888 	clz	r8, r8
 8000f6e:	fa97 f7a7 	rbit	r7, r7
 8000f72:	fab7 f787 	clz	r7, r7
 8000f76:	ea4f 0888 	mov.w	r8, r8, lsl #2
 8000f7a:	fa0c f808 	lsl.w	r8, ip, r8
 8000f7e:	00bf      	lsls	r7, r7, #2
 8000f80:	ea2a 0808 	bic.w	r8, sl, r8
 8000f84:	fa09 f707 	lsl.w	r7, r9, r7
 8000f88:	ea48 0707 	orr.w	r7, r8, r7
 8000f8c:	6257      	str	r7, [r2, #36]	; 0x24
 8000f8e:	e7d1      	b.n	8000f34 <LL_GPIO_Init+0xe0>

08000f90 <LL_RCC_DeInit>:
 8000f90:	4b21      	ldr	r3, [pc, #132]	; (8001018 <LL_RCC_DeInit+0x88>)
 8000f92:	681a      	ldr	r2, [r3, #0]
 8000f94:	f042 0201 	orr.w	r2, r2, #1
 8000f98:	b082      	sub	sp, #8
 8000f9a:	601a      	str	r2, [r3, #0]
 8000f9c:	681a      	ldr	r2, [r3, #0]
 8000f9e:	0792      	lsls	r2, r2, #30
 8000fa0:	d5fc      	bpl.n	8000f9c <LL_RCC_DeInit+0xc>
 8000fa2:	2200      	movs	r2, #0
 8000fa4:	609a      	str	r2, [r3, #8]
 8000fa6:	681a      	ldr	r2, [r3, #0]
 8000fa8:	9201      	str	r2, [sp, #4]
 8000faa:	9a01      	ldr	r2, [sp, #4]
 8000fac:	f022 7286 	bic.w	r2, r2, #17563648	; 0x10c0000
 8000fb0:	f422 3280 	bic.w	r2, r2, #65536	; 0x10000
 8000fb4:	9201      	str	r2, [sp, #4]
 8000fb6:	9a01      	ldr	r2, [sp, #4]
 8000fb8:	f022 6280 	bic.w	r2, r2, #67108864	; 0x4000000
 8000fbc:	9201      	str	r2, [sp, #4]
 8000fbe:	9a01      	ldr	r2, [sp, #4]
 8000fc0:	601a      	str	r2, [r3, #0]
 8000fc2:	681a      	ldr	r2, [r3, #0]
 8000fc4:	f022 02f8 	bic.w	r2, r2, #248	; 0xf8
 8000fc8:	f042 0280 	orr.w	r2, r2, #128	; 0x80
 8000fcc:	601a      	str	r2, [r3, #0]
 8000fce:	4b12      	ldr	r3, [pc, #72]	; (8001018 <LL_RCC_DeInit+0x88>)
 8000fd0:	6818      	ldr	r0, [r3, #0]
 8000fd2:	f010 7000 	ands.w	r0, r0, #33554432	; 0x2000000
 8000fd6:	d1fb      	bne.n	8000fd0 <LL_RCC_DeInit+0x40>
 8000fd8:	4a10      	ldr	r2, [pc, #64]	; (800101c <LL_RCC_DeInit+0x8c>)
 8000fda:	605a      	str	r2, [r3, #4]
 8000fdc:	f102 427c 	add.w	r2, r2, #4227858432	; 0xfc000000
 8000fe0:	f8c3 2084 	str.w	r2, [r3, #132]	; 0x84
 8000fe4:	68da      	ldr	r2, [r3, #12]
 8000fe6:	f422 52f8 	bic.w	r2, r2, #7936	; 0x1f00
 8000fea:	60da      	str	r2, [r3, #12]
 8000fec:	68da      	ldr	r2, [r3, #12]
 8000fee:	f422 5200 	bic.w	r2, r2, #8192	; 0x2000
 8000ff2:	60da      	str	r2, [r3, #12]
 8000ff4:	68da      	ldr	r2, [r3, #12]
 8000ff6:	f442 021f 	orr.w	r2, r2, #10420224	; 0x9f0000
 8000ffa:	60da      	str	r2, [r3, #12]
 8000ffc:	68da      	ldr	r2, [r3, #12]
 8000ffe:	f442 1200 	orr.w	r2, r2, #2097152	; 0x200000
 8001002:	60da      	str	r2, [r3, #12]
 8001004:	6f5a      	ldr	r2, [r3, #116]	; 0x74
 8001006:	f022 0201 	bic.w	r2, r2, #1
 800100a:	675a      	str	r2, [r3, #116]	; 0x74
 800100c:	6f5a      	ldr	r2, [r3, #116]	; 0x74
 800100e:	f042 7280 	orr.w	r2, r2, #16777216	; 0x1000000
 8001012:	675a      	str	r2, [r3, #116]	; 0x74
 8001014:	b002      	add	sp, #8
 8001016:	4770      	bx	lr
 8001018:	40023800 	.word	0x40023800
 800101c:	24003010 	.word	0x24003010

08001020 <RCC_GetHCLKClockFreq>:
 8001020:	4b03      	ldr	r3, [pc, #12]	; (8001030 <RCC_GetHCLKClockFreq+0x10>)
 8001022:	4a04      	ldr	r2, [pc, #16]	; (8001034 <RCC_GetHCLKClockFreq+0x14>)
 8001024:	689b      	ldr	r3, [r3, #8]
 8001026:	f3c3 1303 	ubfx	r3, r3, #4, #4
 800102a:	5cd3      	ldrb	r3, [r2, r3]
 800102c:	40d8      	lsrs	r0, r3
 800102e:	4770      	bx	lr
 8001030:	40023800 	.word	0x40023800
 8001034:	08003068 	.word	0x08003068

08001038 <RCC_GetPCLK1ClockFreq>:
 8001038:	4b03      	ldr	r3, [pc, #12]	; (8001048 <RCC_GetPCLK1ClockFreq+0x10>)
 800103a:	4a04      	ldr	r2, [pc, #16]	; (800104c <RCC_GetPCLK1ClockFreq+0x14>)
 800103c:	689b      	ldr	r3, [r3, #8]
 800103e:	f3c3 2382 	ubfx	r3, r3, #10, #3
 8001042:	5cd3      	ldrb	r3, [r2, r3]
 8001044:	40d8      	lsrs	r0, r3
 8001046:	4770      	bx	lr
 8001048:	40023800 	.word	0x40023800
 800104c:	08003078 	.word	0x08003078

08001050 <RCC_GetPCLK2ClockFreq>:
 8001050:	4b03      	ldr	r3, [pc, #12]	; (8001060 <RCC_GetPCLK2ClockFreq+0x10>)
 8001052:	4a04      	ldr	r2, [pc, #16]	; (8001064 <RCC_GetPCLK2ClockFreq+0x14>)
 8001054:	689b      	ldr	r3, [r3, #8]
 8001056:	f3c3 3342 	ubfx	r3, r3, #13, #3
 800105a:	5cd3      	ldrb	r3, [r2, r3]
 800105c:	40d8      	lsrs	r0, r3
 800105e:	4770      	bx	lr
 8001060:	40023800 	.word	0x40023800
 8001064:	08003078 	.word	0x08003078

08001068 <RCC_PLL_GetFreqDomain_SYS>:
 8001068:	4a0e      	ldr	r2, [pc, #56]	; (80010a4 <RCC_PLL_GetFreqDomain_SYS+0x3c>)
 800106a:	490f      	ldr	r1, [pc, #60]	; (80010a8 <RCC_PLL_GetFreqDomain_SYS+0x40>)
 800106c:	6853      	ldr	r3, [r2, #4]
 800106e:	f413 0f80 	tst.w	r3, #4194304	; 0x400000
 8001072:	4b0e      	ldr	r3, [pc, #56]	; (80010ac <RCC_PLL_GetFreqDomain_SYS+0x44>)
 8001074:	bf18      	it	ne
 8001076:	460b      	movne	r3, r1
 8001078:	2808      	cmp	r0, #8
 800107a:	d110      	bne.n	800109e <RCC_PLL_GetFreqDomain_SYS+0x36>
 800107c:	6850      	ldr	r0, [r2, #4]
 800107e:	6851      	ldr	r1, [r2, #4]
 8001080:	6852      	ldr	r2, [r2, #4]
 8001082:	f000 003f 	and.w	r0, r0, #63	; 0x3f
 8001086:	fbb3 f0f0 	udiv	r0, r3, r0
 800108a:	f3c1 1388 	ubfx	r3, r1, #6, #9
 800108e:	4358      	muls	r0, r3
 8001090:	f3c2 4301 	ubfx	r3, r2, #16, #2
 8001094:	3301      	adds	r3, #1
 8001096:	005b      	lsls	r3, r3, #1
 8001098:	fbb0 f0f3 	udiv	r0, r0, r3
 800109c:	4770      	bx	lr
 800109e:	2000      	movs	r0, #0
 80010a0:	4770      	bx	lr
 80010a2:	bf00      	nop
 80010a4:	40023800 	.word	0x40023800
 80010a8:	007a1200 	.word	0x007a1200
 80010ac:	00f42400 	.word	0x00f42400

080010b0 <RCC_GetSystemClockFreq>:
 80010b0:	4b06      	ldr	r3, [pc, #24]	; (80010cc <RCC_GetSystemClockFreq+0x1c>)
 80010b2:	6898      	ldr	r0, [r3, #8]
 80010b4:	f000 000c 	and.w	r0, r0, #12
 80010b8:	2804      	cmp	r0, #4
 80010ba:	d003      	beq.n	80010c4 <RCC_GetSystemClockFreq+0x14>
 80010bc:	2808      	cmp	r0, #8
 80010be:	d103      	bne.n	80010c8 <RCC_GetSystemClockFreq+0x18>
 80010c0:	f7ff bfd2 	b.w	8001068 <RCC_PLL_GetFreqDomain_SYS>
 80010c4:	4802      	ldr	r0, [pc, #8]	; (80010d0 <RCC_GetSystemClockFreq+0x20>)
 80010c6:	4770      	bx	lr
 80010c8:	4802      	ldr	r0, [pc, #8]	; (80010d4 <RCC_GetSystemClockFreq+0x24>)
 80010ca:	4770      	bx	lr
 80010cc:	40023800 	.word	0x40023800
 80010d0:	007a1200 	.word	0x007a1200
 80010d4:	00f42400 	.word	0x00f42400

080010d8 <LL_RCC_GetSystemClocksFreq>:
 80010d8:	b510      	push	{r4, lr}
 80010da:	4604      	mov	r4, r0
 80010dc:	f7ff ffe8 	bl	80010b0 <RCC_GetSystemClockFreq>
 80010e0:	6020      	str	r0, [r4, #0]
 80010e2:	f7ff ff9d 	bl	8001020 <RCC_GetHCLKClockFreq>
 80010e6:	6060      	str	r0, [r4, #4]
 80010e8:	f7ff ffa6 	bl	8001038 <RCC_GetPCLK1ClockFreq>
 80010ec:	60a0      	str	r0, [r4, #8]
 80010ee:	6860      	ldr	r0, [r4, #4]
 80010f0:	f7ff ffae 	bl	8001050 <RCC_GetPCLK2ClockFreq>
 80010f4:	60e0      	str	r0, [r4, #12]
 80010f6:	bd10      	pop	{r4, pc}

080010f8 <LL_SPI_Init>:
 80010f8:	4602      	mov	r2, r0
 80010fa:	6800      	ldr	r0, [r0, #0]
 80010fc:	f010 0040 	ands.w	r0, r0, #64	; 0x40
 8001100:	b5f0      	push	{r4, r5, r6, r7, lr}
 8001102:	d127      	bne.n	8001154 <LL_SPI_Init+0x5c>
 8001104:	e9d1 3700 	ldrd	r3, r7, [r1]
 8001108:	433b      	orrs	r3, r7
 800110a:	688f      	ldr	r7, [r1, #8]
 800110c:	694d      	ldr	r5, [r1, #20]
 800110e:	6816      	ldr	r6, [r2, #0]
 8001110:	6a0c      	ldr	r4, [r1, #32]
 8001112:	433b      	orrs	r3, r7
 8001114:	68cf      	ldr	r7, [r1, #12]
 8001116:	433b      	orrs	r3, r7
 8001118:	690f      	ldr	r7, [r1, #16]
 800111a:	433b      	orrs	r3, r7
 800111c:	698f      	ldr	r7, [r1, #24]
 800111e:	432b      	orrs	r3, r5
 8001120:	433b      	orrs	r3, r7
 8001122:	69cf      	ldr	r7, [r1, #28]
 8001124:	f426 467f 	bic.w	r6, r6, #65280	; 0xff00
 8001128:	433b      	orrs	r3, r7
 800112a:	4323      	orrs	r3, r4
 800112c:	f026 06bf 	bic.w	r6, r6, #191	; 0xbf
 8001130:	4333      	orrs	r3, r6
 8001132:	6013      	str	r3, [r2, #0]
 8001134:	6853      	ldr	r3, [r2, #4]
 8001136:	f023 0304 	bic.w	r3, r3, #4
 800113a:	ea43 4515 	orr.w	r5, r3, r5, lsr #16
 800113e:	f5b4 5f00 	cmp.w	r4, #8192	; 0x2000
 8001142:	6055      	str	r5, [r2, #4]
 8001144:	d101      	bne.n	800114a <LL_SPI_Init+0x52>
 8001146:	8c8b      	ldrh	r3, [r1, #36]	; 0x24
 8001148:	6113      	str	r3, [r2, #16]
 800114a:	69d3      	ldr	r3, [r2, #28]
 800114c:	f423 6300 	bic.w	r3, r3, #2048	; 0x800
 8001150:	61d3      	str	r3, [r2, #28]
 8001152:	bdf0      	pop	{r4, r5, r6, r7, pc}
 8001154:	2001      	movs	r0, #1
 8001156:	e7f8      	b.n	800114a <LL_SPI_Init+0x52>

08001158 <LL_USART_Init>:
 8001158:	b57f      	push	{r0, r1, r2, r3, r4, r5, r6, lr}
 800115a:	68c3      	ldr	r3, [r0, #12]
 800115c:	049b      	lsls	r3, r3, #18
 800115e:	4604      	mov	r4, r0
 8001160:	460d      	mov	r5, r1
 8001162:	d502      	bpl.n	800116a <LL_USART_Init+0x12>
 8001164:	2001      	movs	r0, #1
 8001166:	b004      	add	sp, #16
 8001168:	bd70      	pop	{r4, r5, r6, pc}
 800116a:	684b      	ldr	r3, [r1, #4]
 800116c:	68c9      	ldr	r1, [r1, #12]
 800116e:	68c2      	ldr	r2, [r0, #12]
 8001170:	430b      	orrs	r3, r1
 8001172:	6929      	ldr	r1, [r5, #16]
 8001174:	430b      	orrs	r3, r1
 8001176:	69a9      	ldr	r1, [r5, #24]
 8001178:	f422 4216 	bic.w	r2, r2, #38400	; 0x9600
 800117c:	430b      	orrs	r3, r1
 800117e:	f022 020c 	bic.w	r2, r2, #12
 8001182:	4313      	orrs	r3, r2
 8001184:	60c3      	str	r3, [r0, #12]
 8001186:	6903      	ldr	r3, [r0, #16]
 8001188:	68aa      	ldr	r2, [r5, #8]
 800118a:	f423 5340 	bic.w	r3, r3, #12288	; 0x3000
 800118e:	4313      	orrs	r3, r2
 8001190:	6103      	str	r3, [r0, #16]
 8001192:	6943      	ldr	r3, [r0, #20]
 8001194:	696a      	ldr	r2, [r5, #20]
 8001196:	f423 7340 	bic.w	r3, r3, #768	; 0x300
 800119a:	4313      	orrs	r3, r2
 800119c:	6143      	str	r3, [r0, #20]
 800119e:	4668      	mov	r0, sp
 80011a0:	f7ff ff9a 	bl	80010d8 <LL_RCC_GetSystemClocksFreq>
 80011a4:	4b22      	ldr	r3, [pc, #136]	; (8001230 <LL_USART_Init+0xd8>)
 80011a6:	429c      	cmp	r4, r3
 80011a8:	d128      	bne.n	80011fc <LL_USART_Init+0xa4>
 80011aa:	9903      	ldr	r1, [sp, #12]
 80011ac:	2900      	cmp	r1, #0
 80011ae:	d0d9      	beq.n	8001164 <LL_USART_Init+0xc>
 80011b0:	682b      	ldr	r3, [r5, #0]
 80011b2:	2b00      	cmp	r3, #0
 80011b4:	d0d6      	beq.n	8001164 <LL_USART_Init+0xc>
 80011b6:	69aa      	ldr	r2, [r5, #24]
 80011b8:	2019      	movs	r0, #25
 80011ba:	f5b2 4f00 	cmp.w	r2, #32768	; 0x8000
 80011be:	fba1 0100 	umull	r0, r1, r1, r0
 80011c2:	d124      	bne.n	800120e <LL_USART_Init+0xb6>
 80011c4:	18da      	adds	r2, r3, r3
 80011c6:	f04f 0500 	mov.w	r5, #0
 80011ca:	eb45 0305 	adc.w	r3, r5, r5
 80011ce:	f7ff f803 	bl	80001d8 <__aeabi_uldivmod>
 80011d2:	2164      	movs	r1, #100	; 0x64
 80011d4:	fbb0 f6f1 	udiv	r6, r0, r1
 80011d8:	fb01 0316 	mls	r3, r1, r6, r0
 80011dc:	00db      	lsls	r3, r3, #3
 80011de:	3332      	adds	r3, #50	; 0x32
 80011e0:	fbb3 f3f1 	udiv	r3, r3, r1
 80011e4:	f003 0207 	and.w	r2, r3, #7
 80011e8:	005b      	lsls	r3, r3, #1
 80011ea:	eb02 1206 	add.w	r2, r2, r6, lsl #4
 80011ee:	f403 73f8 	and.w	r3, r3, #496	; 0x1f0
 80011f2:	4413      	add	r3, r2
 80011f4:	b29b      	uxth	r3, r3
 80011f6:	60a3      	str	r3, [r4, #8]
 80011f8:	2000      	movs	r0, #0
 80011fa:	e7b4      	b.n	8001166 <LL_USART_Init+0xe>
 80011fc:	4b0d      	ldr	r3, [pc, #52]	; (8001234 <LL_USART_Init+0xdc>)
 80011fe:	429c      	cmp	r4, r3
 8001200:	d101      	bne.n	8001206 <LL_USART_Init+0xae>
 8001202:	9902      	ldr	r1, [sp, #8]
 8001204:	e7d2      	b.n	80011ac <LL_USART_Init+0x54>
 8001206:	4b0c      	ldr	r3, [pc, #48]	; (8001238 <LL_USART_Init+0xe0>)
 8001208:	429c      	cmp	r4, r3
 800120a:	d1ab      	bne.n	8001164 <LL_USART_Init+0xc>
 800120c:	e7cd      	b.n	80011aa <LL_USART_Init+0x52>
 800120e:	009a      	lsls	r2, r3, #2
 8001210:	0f9b      	lsrs	r3, r3, #30
 8001212:	f7fe ffe1 	bl	80001d8 <__aeabi_uldivmod>
 8001216:	2264      	movs	r2, #100	; 0x64
 8001218:	fbb0 f1f2 	udiv	r1, r0, r2
 800121c:	fb02 0311 	mls	r3, r2, r1, r0
 8001220:	011b      	lsls	r3, r3, #4
 8001222:	3332      	adds	r3, #50	; 0x32
 8001224:	fbb3 f3f2 	udiv	r3, r3, r2
 8001228:	eb03 1301 	add.w	r3, r3, r1, lsl #4
 800122c:	e7e2      	b.n	80011f4 <LL_USART_Init+0x9c>
 800122e:	bf00      	nop
 8001230:	40011000 	.word	0x40011000
 8001234:	40004400 	.word	0x40004400
 8001238:	40011400 	.word	0x40011400

0800123c <LL_SetSystemCoreClock>:
 800123c:	4b01      	ldr	r3, [pc, #4]	; (8001244 <LL_SetSystemCoreClock+0x8>)
 800123e:	6018      	str	r0, [r3, #0]
 8001240:	4770      	bx	lr
 8001242:	bf00      	nop
 8001244:	20000000 	.word	0x20000000

08001248 <MX_FATFS_Init>:
 8001248:	b508      	push	{r3, lr}
 800124a:	4903      	ldr	r1, [pc, #12]	; (8001258 <MX_FATFS_Init+0x10>)
 800124c:	4803      	ldr	r0, [pc, #12]	; (800125c <MX_FATFS_Init+0x14>)
 800124e:	f001 fe61 	bl	8002f14 <FATFS_LinkDriver>
 8001252:	4b03      	ldr	r3, [pc, #12]	; (8001260 <MX_FATFS_Init+0x18>)
 8001254:	7018      	strb	r0, [r3, #0]
 8001256:	bd08      	pop	{r3, pc}
 8001258:	2000005c 	.word	0x2000005c
 800125c:	20000010 	.word	0x20000010
 8001260:	20000060 	.word	0x20000060

08001264 <get_fattime>:
 8001264:	2000      	movs	r0, #0
 8001266:	4770      	bx	lr

08001268 <USER_initialize>:
 8001268:	b510      	push	{r4, lr}
 800126a:	4c04      	ldr	r4, [pc, #16]	; (800127c <USER_initialize+0x14>)
 800126c:	2301      	movs	r3, #1
 800126e:	7023      	strb	r3, [r4, #0]
 8001270:	f000 f90c 	bl	800148c <USER_SPI_initialize>
 8001274:	7020      	strb	r0, [r4, #0]
 8001276:	7820      	ldrb	r0, [r4, #0]
 8001278:	bd10      	pop	{r4, pc}
 800127a:	bf00      	nop
 800127c:	2000000c 	.word	0x2000000c

08001280 <USER_status>:
 8001280:	b510      	push	{r4, lr}
 8001282:	4c04      	ldr	r4, [pc, #16]	; (8001294 <USER_status+0x14>)
 8001284:	2301      	movs	r3, #1
 8001286:	7023      	strb	r3, [r4, #0]
 8001288:	f000 f9a0 	bl	80015cc <USER_SPI_status>
 800128c:	7020      	strb	r0, [r4, #0]
 800128e:	7820      	ldrb	r0, [r4, #0]
 8001290:	bd10      	pop	{r4, pc}
 8001292:	bf00      	nop
 8001294:	2000000c 	.word	0x2000000c

08001298 <USER_read>:
 8001298:	f000 b9a2 	b.w	80015e0 <USER_SPI_read>

0800129c <USER_write>:
 800129c:	f000 b9e0 	b.w	8001660 <USER_SPI_write>

080012a0 <USER_ioctl>:
 80012a0:	f000 ba2e 	b.w	8001700 <USER_SPI_ioctl>

080012a4 <recv_spi>:
 80012a4:	b51f      	push	{r0, r1, r2, r3, r4, lr}
 80012a6:	2332      	movs	r3, #50	; 0x32
 80012a8:	f88d 0007 	strb.w	r0, [sp, #7]
 80012ac:	2201      	movs	r2, #1
 80012ae:	f10d 010f 	add.w	r1, sp, #15
 80012b2:	f10d 0007 	add.w	r0, sp, #7
 80012b6:	f7ff faed 	bl	8000894 <spi_send_and_read>
 80012ba:	f89d 000f 	ldrb.w	r0, [sp, #15]
 80012be:	b005      	add	sp, #20
 80012c0:	f85d fb04 	ldr.w	pc, [sp], #4

080012c4 <wait_ready>:
 80012c4:	b570      	push	{r4, r5, r6, lr}
 80012c6:	4605      	mov	r5, r0
 80012c8:	f7ff fd52 	bl	8000d70 <HAL_GetTick>
 80012cc:	4606      	mov	r6, r0
 80012ce:	20ff      	movs	r0, #255	; 0xff
 80012d0:	f7ff ffe8 	bl	80012a4 <recv_spi>
 80012d4:	28ff      	cmp	r0, #255	; 0xff
 80012d6:	4604      	mov	r4, r0
 80012d8:	d004      	beq.n	80012e4 <wait_ready+0x20>
 80012da:	f7ff fd49 	bl	8000d70 <HAL_GetTick>
 80012de:	1b83      	subs	r3, r0, r6
 80012e0:	42ab      	cmp	r3, r5
 80012e2:	d3f4      	bcc.n	80012ce <wait_ready+0xa>
 80012e4:	f1a4 03ff 	sub.w	r3, r4, #255	; 0xff
 80012e8:	4258      	negs	r0, r3
 80012ea:	4158      	adcs	r0, r3
 80012ec:	bd70      	pop	{r4, r5, r6, pc}
	...

080012f0 <despiselect>:
 80012f0:	4b03      	ldr	r3, [pc, #12]	; (8001300 <despiselect+0x10>)
 80012f2:	f44f 5280 	mov.w	r2, #4096	; 0x1000
 80012f6:	619a      	str	r2, [r3, #24]
 80012f8:	20ff      	movs	r0, #255	; 0xff
 80012fa:	f7ff bfd3 	b.w	80012a4 <recv_spi>
 80012fe:	bf00      	nop
 8001300:	40020000 	.word	0x40020000

08001304 <spiselect>:
 8001304:	4b09      	ldr	r3, [pc, #36]	; (800132c <spiselect+0x28>)
 8001306:	f04f 5280 	mov.w	r2, #268435456	; 0x10000000
 800130a:	b510      	push	{r4, lr}
 800130c:	20ff      	movs	r0, #255	; 0xff
 800130e:	619a      	str	r2, [r3, #24]
 8001310:	f7ff ffc8 	bl	80012a4 <recv_spi>
 8001314:	f44f 70fa 	mov.w	r0, #500	; 0x1f4
 8001318:	f7ff ffd4 	bl	80012c4 <wait_ready>
 800131c:	4604      	mov	r4, r0
 800131e:	b918      	cbnz	r0, 8001328 <spiselect+0x24>
 8001320:	f7ff ffe6 	bl	80012f0 <despiselect>
 8001324:	4620      	mov	r0, r4
 8001326:	bd10      	pop	{r4, pc}
 8001328:	2401      	movs	r4, #1
 800132a:	e7fb      	b.n	8001324 <spiselect+0x20>
 800132c:	40020000 	.word	0x40020000

08001330 <send_cmd>:
 8001330:	0602      	lsls	r2, r0, #24
 8001332:	b538      	push	{r3, r4, r5, lr}
 8001334:	4604      	mov	r4, r0
 8001336:	460d      	mov	r5, r1
 8001338:	d507      	bpl.n	800134a <send_cmd+0x1a>
 800133a:	2100      	movs	r1, #0
 800133c:	2037      	movs	r0, #55	; 0x37
 800133e:	f7ff fff7 	bl	8001330 <send_cmd>
 8001342:	2801      	cmp	r0, #1
 8001344:	d82b      	bhi.n	800139e <send_cmd+0x6e>
 8001346:	f004 047f 	and.w	r4, r4, #127	; 0x7f
 800134a:	2c0c      	cmp	r4, #12
 800134c:	d128      	bne.n	80013a0 <send_cmd+0x70>
 800134e:	f044 0040 	orr.w	r0, r4, #64	; 0x40
 8001352:	f7ff ffa7 	bl	80012a4 <recv_spi>
 8001356:	0e28      	lsrs	r0, r5, #24
 8001358:	f7ff ffa4 	bl	80012a4 <recv_spi>
 800135c:	f3c5 4007 	ubfx	r0, r5, #16, #8
 8001360:	f7ff ffa0 	bl	80012a4 <recv_spi>
 8001364:	f3c5 2007 	ubfx	r0, r5, #8, #8
 8001368:	f7ff ff9c 	bl	80012a4 <recv_spi>
 800136c:	b2e8      	uxtb	r0, r5
 800136e:	f7ff ff99 	bl	80012a4 <recv_spi>
 8001372:	b1ec      	cbz	r4, 80013b0 <send_cmd+0x80>
 8001374:	2c08      	cmp	r4, #8
 8001376:	bf14      	ite	ne
 8001378:	2001      	movne	r0, #1
 800137a:	2087      	moveq	r0, #135	; 0x87
 800137c:	f7ff ff92 	bl	80012a4 <recv_spi>
 8001380:	2c0c      	cmp	r4, #12
 8001382:	d102      	bne.n	800138a <send_cmd+0x5a>
 8001384:	20ff      	movs	r0, #255	; 0xff
 8001386:	f7ff ff8d 	bl	80012a4 <recv_spi>
 800138a:	240a      	movs	r4, #10
 800138c:	20ff      	movs	r0, #255	; 0xff
 800138e:	f7ff ff89 	bl	80012a4 <recv_spi>
 8001392:	0603      	lsls	r3, r0, #24
 8001394:	d503      	bpl.n	800139e <send_cmd+0x6e>
 8001396:	3c01      	subs	r4, #1
 8001398:	f014 04ff 	ands.w	r4, r4, #255	; 0xff
 800139c:	d1f6      	bne.n	800138c <send_cmd+0x5c>
 800139e:	bd38      	pop	{r3, r4, r5, pc}
 80013a0:	f7ff ffa6 	bl	80012f0 <despiselect>
 80013a4:	f7ff ffae 	bl	8001304 <spiselect>
 80013a8:	2800      	cmp	r0, #0
 80013aa:	d1d0      	bne.n	800134e <send_cmd+0x1e>
 80013ac:	20ff      	movs	r0, #255	; 0xff
 80013ae:	e7f6      	b.n	800139e <send_cmd+0x6e>
 80013b0:	2095      	movs	r0, #149	; 0x95
 80013b2:	e7e3      	b.n	800137c <send_cmd+0x4c>

080013b4 <xmit_datablock>:
 80013b4:	b538      	push	{r3, r4, r5, lr}
 80013b6:	4604      	mov	r4, r0
 80013b8:	f44f 70fa 	mov.w	r0, #500	; 0x1f4
 80013bc:	460d      	mov	r5, r1
 80013be:	f7ff ff81 	bl	80012c4 <wait_ready>
 80013c2:	b1d8      	cbz	r0, 80013fc <xmit_datablock+0x48>
 80013c4:	4628      	mov	r0, r5
 80013c6:	f7ff ff6d 	bl	80012a4 <recv_spi>
 80013ca:	2dfd      	cmp	r5, #253	; 0xfd
 80013cc:	d017      	beq.n	80013fe <xmit_datablock+0x4a>
 80013ce:	1e65      	subs	r5, r4, #1
 80013d0:	f204 14ff 	addw	r4, r4, #511	; 0x1ff
 80013d4:	f815 0f01 	ldrb.w	r0, [r5, #1]!
 80013d8:	f7ff ff64 	bl	80012a4 <recv_spi>
 80013dc:	42a5      	cmp	r5, r4
 80013de:	d1f9      	bne.n	80013d4 <xmit_datablock+0x20>
 80013e0:	20ff      	movs	r0, #255	; 0xff
 80013e2:	f7ff ff5f 	bl	80012a4 <recv_spi>
 80013e6:	20ff      	movs	r0, #255	; 0xff
 80013e8:	f7ff ff5c 	bl	80012a4 <recv_spi>
 80013ec:	20ff      	movs	r0, #255	; 0xff
 80013ee:	f7ff ff59 	bl	80012a4 <recv_spi>
 80013f2:	f000 001f 	and.w	r0, r0, #31
 80013f6:	1f43      	subs	r3, r0, #5
 80013f8:	4258      	negs	r0, r3
 80013fa:	4158      	adcs	r0, r3
 80013fc:	bd38      	pop	{r3, r4, r5, pc}
 80013fe:	2001      	movs	r0, #1
 8001400:	e7fc      	b.n	80013fc <xmit_datablock+0x48>
	...

08001404 <SPI_Timer_On>:
 8001404:	b510      	push	{r4, lr}
 8001406:	4604      	mov	r4, r0
 8001408:	f7ff fcb2 	bl	8000d70 <HAL_GetTick>
 800140c:	4b02      	ldr	r3, [pc, #8]	; (8001418 <SPI_Timer_On+0x14>)
 800140e:	6018      	str	r0, [r3, #0]
 8001410:	4b02      	ldr	r3, [pc, #8]	; (800141c <SPI_Timer_On+0x18>)
 8001412:	601c      	str	r4, [r3, #0]
 8001414:	bd10      	pop	{r4, pc}
 8001416:	bf00      	nop
 8001418:	20000068 	.word	0x20000068
 800141c:	20000064 	.word	0x20000064

08001420 <SPI_Timer_Status>:
 8001420:	b508      	push	{r3, lr}
 8001422:	f7ff fca5 	bl	8000d70 <HAL_GetTick>
 8001426:	4b05      	ldr	r3, [pc, #20]	; (800143c <SPI_Timer_Status+0x1c>)
 8001428:	681b      	ldr	r3, [r3, #0]
 800142a:	1ac0      	subs	r0, r0, r3
 800142c:	4b04      	ldr	r3, [pc, #16]	; (8001440 <SPI_Timer_Status+0x20>)
 800142e:	681b      	ldr	r3, [r3, #0]
 8001430:	4298      	cmp	r0, r3
 8001432:	bf2c      	ite	cs
 8001434:	2000      	movcs	r0, #0
 8001436:	2001      	movcc	r0, #1
 8001438:	bd08      	pop	{r3, pc}
 800143a:	bf00      	nop
 800143c:	20000068 	.word	0x20000068
 8001440:	20000064 	.word	0x20000064

08001444 <rcvr_datablock>:
 8001444:	b538      	push	{r3, r4, r5, lr}
 8001446:	4604      	mov	r4, r0
 8001448:	20c8      	movs	r0, #200	; 0xc8
 800144a:	460d      	mov	r5, r1
 800144c:	f7ff ffda 	bl	8001404 <SPI_Timer_On>
 8001450:	20ff      	movs	r0, #255	; 0xff
 8001452:	f7ff ff27 	bl	80012a4 <recv_spi>
 8001456:	28ff      	cmp	r0, #255	; 0xff
 8001458:	d105      	bne.n	8001466 <rcvr_datablock+0x22>
 800145a:	f7ff ffe1 	bl	8001420 <SPI_Timer_Status>
 800145e:	2800      	cmp	r0, #0
 8001460:	d1f6      	bne.n	8001450 <rcvr_datablock+0xc>
 8001462:	2000      	movs	r0, #0
 8001464:	bd38      	pop	{r3, r4, r5, pc}
 8001466:	28fe      	cmp	r0, #254	; 0xfe
 8001468:	d1fb      	bne.n	8001462 <rcvr_datablock+0x1e>
 800146a:	4425      	add	r5, r4
 800146c:	20ff      	movs	r0, #255	; 0xff
 800146e:	f7ff ff19 	bl	80012a4 <recv_spi>
 8001472:	f804 0b01 	strb.w	r0, [r4], #1
 8001476:	42a5      	cmp	r5, r4
 8001478:	d1f8      	bne.n	800146c <rcvr_datablock+0x28>
 800147a:	20ff      	movs	r0, #255	; 0xff
 800147c:	f7ff ff12 	bl	80012a4 <recv_spi>
 8001480:	20ff      	movs	r0, #255	; 0xff
 8001482:	f7ff ff0f 	bl	80012a4 <recv_spi>
 8001486:	2001      	movs	r0, #1
 8001488:	e7ec      	b.n	8001464 <rcvr_datablock+0x20>
	...

0800148c <USER_SPI_initialize>:
 800148c:	b5f7      	push	{r0, r1, r2, r4, r5, r6, r7, lr}
 800148e:	2800      	cmp	r0, #0
 8001490:	f040 8093 	bne.w	80015ba <USER_SPI_initialize+0x12e>
 8001494:	4d4a      	ldr	r5, [pc, #296]	; (80015c0 <USER_SPI_initialize+0x134>)
 8001496:	782b      	ldrb	r3, [r5, #0]
 8001498:	079b      	lsls	r3, r3, #30
 800149a:	d503      	bpl.n	80014a4 <USER_SPI_initialize+0x18>
 800149c:	7828      	ldrb	r0, [r5, #0]
 800149e:	b2c0      	uxtb	r0, r0
 80014a0:	b003      	add	sp, #12
 80014a2:	bdf0      	pop	{r4, r5, r6, r7, pc}
 80014a4:	4a47      	ldr	r2, [pc, #284]	; (80015c4 <USER_SPI_initialize+0x138>)
 80014a6:	6813      	ldr	r3, [r2, #0]
 80014a8:	f023 0338 	bic.w	r3, r3, #56	; 0x38
 80014ac:	f043 0330 	orr.w	r3, r3, #48	; 0x30
 80014b0:	6013      	str	r3, [r2, #0]
 80014b2:	240a      	movs	r4, #10
 80014b4:	20ff      	movs	r0, #255	; 0xff
 80014b6:	3c01      	subs	r4, #1
 80014b8:	f7ff fef4 	bl	80012a4 <recv_spi>
 80014bc:	f014 04ff 	ands.w	r4, r4, #255	; 0xff
 80014c0:	d1f8      	bne.n	80014b4 <USER_SPI_initialize+0x28>
 80014c2:	4621      	mov	r1, r4
 80014c4:	4620      	mov	r0, r4
 80014c6:	f7ff ff33 	bl	8001330 <send_cmd>
 80014ca:	2801      	cmp	r0, #1
 80014cc:	4606      	mov	r6, r0
 80014ce:	d170      	bne.n	80015b2 <USER_SPI_initialize+0x126>
 80014d0:	f44f 707a 	mov.w	r0, #1000	; 0x3e8
 80014d4:	f7ff ff96 	bl	8001404 <SPI_Timer_On>
 80014d8:	f44f 71d5 	mov.w	r1, #426	; 0x1aa
 80014dc:	2008      	movs	r0, #8
 80014de:	f7ff ff27 	bl	8001330 <send_cmd>
 80014e2:	2801      	cmp	r0, #1
 80014e4:	d149      	bne.n	800157a <USER_SPI_initialize+0xee>
 80014e6:	ae01      	add	r6, sp, #4
 80014e8:	4637      	mov	r7, r6
 80014ea:	2404      	movs	r4, #4
 80014ec:	20ff      	movs	r0, #255	; 0xff
 80014ee:	f7ff fed9 	bl	80012a4 <recv_spi>
 80014f2:	3c01      	subs	r4, #1
 80014f4:	f014 04ff 	ands.w	r4, r4, #255	; 0xff
 80014f8:	f807 0b01 	strb.w	r0, [r7], #1
 80014fc:	d1f6      	bne.n	80014ec <USER_SPI_initialize+0x60>
 80014fe:	f89d 3006 	ldrb.w	r3, [sp, #6]
 8001502:	2b01      	cmp	r3, #1
 8001504:	d155      	bne.n	80015b2 <USER_SPI_initialize+0x126>
 8001506:	f89d 3007 	ldrb.w	r3, [sp, #7]
 800150a:	2baa      	cmp	r3, #170	; 0xaa
 800150c:	d151      	bne.n	80015b2 <USER_SPI_initialize+0x126>
 800150e:	f7ff ff87 	bl	8001420 <SPI_Timer_Status>
 8001512:	b130      	cbz	r0, 8001522 <USER_SPI_initialize+0x96>
 8001514:	f04f 4180 	mov.w	r1, #1073741824	; 0x40000000
 8001518:	20a9      	movs	r0, #169	; 0xa9
 800151a:	f7ff ff09 	bl	8001330 <send_cmd>
 800151e:	2800      	cmp	r0, #0
 8001520:	d1f5      	bne.n	800150e <USER_SPI_initialize+0x82>
 8001522:	f7ff ff7d 	bl	8001420 <SPI_Timer_Status>
 8001526:	2800      	cmp	r0, #0
 8001528:	d043      	beq.n	80015b2 <USER_SPI_initialize+0x126>
 800152a:	2100      	movs	r1, #0
 800152c:	203a      	movs	r0, #58	; 0x3a
 800152e:	f7ff feff 	bl	8001330 <send_cmd>
 8001532:	2800      	cmp	r0, #0
 8001534:	d13d      	bne.n	80015b2 <USER_SPI_initialize+0x126>
 8001536:	2404      	movs	r4, #4
 8001538:	20ff      	movs	r0, #255	; 0xff
 800153a:	f7ff feb3 	bl	80012a4 <recv_spi>
 800153e:	3c01      	subs	r4, #1
 8001540:	f014 04ff 	ands.w	r4, r4, #255	; 0xff
 8001544:	f806 0b01 	strb.w	r0, [r6], #1
 8001548:	d1f6      	bne.n	8001538 <USER_SPI_initialize+0xac>
 800154a:	f89d 3004 	ldrb.w	r3, [sp, #4]
 800154e:	f013 0f40 	tst.w	r3, #64	; 0x40
 8001552:	bf14      	ite	ne
 8001554:	240c      	movne	r4, #12
 8001556:	2404      	moveq	r4, #4
 8001558:	4b1b      	ldr	r3, [pc, #108]	; (80015c8 <USER_SPI_initialize+0x13c>)
 800155a:	701c      	strb	r4, [r3, #0]
 800155c:	f7ff fec8 	bl	80012f0 <despiselect>
 8001560:	b34c      	cbz	r4, 80015b6 <USER_SPI_initialize+0x12a>
 8001562:	4a18      	ldr	r2, [pc, #96]	; (80015c4 <USER_SPI_initialize+0x138>)
 8001564:	6813      	ldr	r3, [r2, #0]
 8001566:	f023 0338 	bic.w	r3, r3, #56	; 0x38
 800156a:	f043 0320 	orr.w	r3, r3, #32
 800156e:	6013      	str	r3, [r2, #0]
 8001570:	782b      	ldrb	r3, [r5, #0]
 8001572:	f003 03fe 	and.w	r3, r3, #254	; 0xfe
 8001576:	702b      	strb	r3, [r5, #0]
 8001578:	e790      	b.n	800149c <USER_SPI_initialize+0x10>
 800157a:	4621      	mov	r1, r4
 800157c:	20a9      	movs	r0, #169	; 0xa9
 800157e:	f7ff fed7 	bl	8001330 <send_cmd>
 8001582:	2802      	cmp	r0, #2
 8001584:	bf36      	itet	cc
 8001586:	2402      	movcc	r4, #2
 8001588:	2401      	movcs	r4, #1
 800158a:	26a9      	movcc	r6, #169	; 0xa9
 800158c:	f7ff ff48 	bl	8001420 <SPI_Timer_Status>
 8001590:	b128      	cbz	r0, 800159e <USER_SPI_initialize+0x112>
 8001592:	2100      	movs	r1, #0
 8001594:	4630      	mov	r0, r6
 8001596:	f7ff fecb 	bl	8001330 <send_cmd>
 800159a:	2800      	cmp	r0, #0
 800159c:	d1f6      	bne.n	800158c <USER_SPI_initialize+0x100>
 800159e:	f7ff ff3f 	bl	8001420 <SPI_Timer_Status>
 80015a2:	b130      	cbz	r0, 80015b2 <USER_SPI_initialize+0x126>
 80015a4:	f44f 7100 	mov.w	r1, #512	; 0x200
 80015a8:	2010      	movs	r0, #16
 80015aa:	f7ff fec1 	bl	8001330 <send_cmd>
 80015ae:	2800      	cmp	r0, #0
 80015b0:	d0d2      	beq.n	8001558 <USER_SPI_initialize+0xcc>
 80015b2:	2400      	movs	r4, #0
 80015b4:	e7d0      	b.n	8001558 <USER_SPI_initialize+0xcc>
 80015b6:	2301      	movs	r3, #1
 80015b8:	e7dd      	b.n	8001576 <USER_SPI_initialize+0xea>
 80015ba:	2001      	movs	r0, #1
 80015bc:	e770      	b.n	80014a0 <USER_SPI_initialize+0x14>
 80015be:	bf00      	nop
 80015c0:	20000024 	.word	0x20000024
 80015c4:	40003800 	.word	0x40003800
 80015c8:	20000061 	.word	0x20000061

080015cc <USER_SPI_status>:
 80015cc:	b918      	cbnz	r0, 80015d6 <USER_SPI_status+0xa>
 80015ce:	4b03      	ldr	r3, [pc, #12]	; (80015dc <USER_SPI_status+0x10>)
 80015d0:	7818      	ldrb	r0, [r3, #0]
 80015d2:	b2c0      	uxtb	r0, r0
 80015d4:	4770      	bx	lr
 80015d6:	2001      	movs	r0, #1
 80015d8:	4770      	bx	lr
 80015da:	bf00      	nop
 80015dc:	20000024 	.word	0x20000024

080015e0 <USER_SPI_read>:
 80015e0:	b538      	push	{r3, r4, r5, lr}
 80015e2:	460d      	mov	r5, r1
 80015e4:	461c      	mov	r4, r3
 80015e6:	4611      	mov	r1, r2
 80015e8:	bb88      	cbnz	r0, 800164e <USER_SPI_read+0x6e>
 80015ea:	b383      	cbz	r3, 800164e <USER_SPI_read+0x6e>
 80015ec:	4b1a      	ldr	r3, [pc, #104]	; (8001658 <USER_SPI_read+0x78>)
 80015ee:	781b      	ldrb	r3, [r3, #0]
 80015f0:	07da      	lsls	r2, r3, #31
 80015f2:	d42e      	bmi.n	8001652 <USER_SPI_read+0x72>
 80015f4:	4b19      	ldr	r3, [pc, #100]	; (800165c <USER_SPI_read+0x7c>)
 80015f6:	781b      	ldrb	r3, [r3, #0]
 80015f8:	071b      	lsls	r3, r3, #28
 80015fa:	bf58      	it	pl
 80015fc:	0249      	lslpl	r1, r1, #9
 80015fe:	2c01      	cmp	r4, #1
 8001600:	d111      	bne.n	8001626 <USER_SPI_read+0x46>
 8001602:	2011      	movs	r0, #17
 8001604:	f7ff fe94 	bl	8001330 <send_cmd>
 8001608:	b938      	cbnz	r0, 800161a <USER_SPI_read+0x3a>
 800160a:	f44f 7100 	mov.w	r1, #512	; 0x200
 800160e:	4628      	mov	r0, r5
 8001610:	f7ff ff18 	bl	8001444 <rcvr_datablock>
 8001614:	fab0 f480 	clz	r4, r0
 8001618:	0964      	lsrs	r4, r4, #5
 800161a:	f7ff fe69 	bl	80012f0 <despiselect>
 800161e:	1e20      	subs	r0, r4, #0
 8001620:	bf18      	it	ne
 8001622:	2001      	movne	r0, #1
 8001624:	bd38      	pop	{r3, r4, r5, pc}
 8001626:	2012      	movs	r0, #18
 8001628:	f7ff fe82 	bl	8001330 <send_cmd>
 800162c:	2800      	cmp	r0, #0
 800162e:	d1f4      	bne.n	800161a <USER_SPI_read+0x3a>
 8001630:	f44f 7100 	mov.w	r1, #512	; 0x200
 8001634:	4628      	mov	r0, r5
 8001636:	f7ff ff05 	bl	8001444 <rcvr_datablock>
 800163a:	b118      	cbz	r0, 8001644 <USER_SPI_read+0x64>
 800163c:	3c01      	subs	r4, #1
 800163e:	f505 7500 	add.w	r5, r5, #512	; 0x200
 8001642:	d1f5      	bne.n	8001630 <USER_SPI_read+0x50>
 8001644:	2100      	movs	r1, #0
 8001646:	200c      	movs	r0, #12
 8001648:	f7ff fe72 	bl	8001330 <send_cmd>
 800164c:	e7e5      	b.n	800161a <USER_SPI_read+0x3a>
 800164e:	2004      	movs	r0, #4
 8001650:	e7e8      	b.n	8001624 <USER_SPI_read+0x44>
 8001652:	2003      	movs	r0, #3
 8001654:	e7e6      	b.n	8001624 <USER_SPI_read+0x44>
 8001656:	bf00      	nop
 8001658:	20000024 	.word	0x20000024
 800165c:	20000061 	.word	0x20000061

08001660 <USER_SPI_write>:
 8001660:	b570      	push	{r4, r5, r6, lr}
 8001662:	460e      	mov	r6, r1
 8001664:	4615      	mov	r5, r2
 8001666:	461c      	mov	r4, r3
 8001668:	2800      	cmp	r0, #0
 800166a:	d13f      	bne.n	80016ec <USER_SPI_write+0x8c>
 800166c:	2b00      	cmp	r3, #0
 800166e:	d03d      	beq.n	80016ec <USER_SPI_write+0x8c>
 8001670:	4b21      	ldr	r3, [pc, #132]	; (80016f8 <USER_SPI_write+0x98>)
 8001672:	781a      	ldrb	r2, [r3, #0]
 8001674:	07d0      	lsls	r0, r2, #31
 8001676:	d43b      	bmi.n	80016f0 <USER_SPI_write+0x90>
 8001678:	781b      	ldrb	r3, [r3, #0]
 800167a:	0759      	lsls	r1, r3, #29
 800167c:	d43a      	bmi.n	80016f4 <USER_SPI_write+0x94>
 800167e:	4b1f      	ldr	r3, [pc, #124]	; (80016fc <USER_SPI_write+0x9c>)
 8001680:	781b      	ldrb	r3, [r3, #0]
 8001682:	071a      	lsls	r2, r3, #28
 8001684:	bf58      	it	pl
 8001686:	026d      	lslpl	r5, r5, #9
 8001688:	2c01      	cmp	r4, #1
 800168a:	d111      	bne.n	80016b0 <USER_SPI_write+0x50>
 800168c:	4629      	mov	r1, r5
 800168e:	2018      	movs	r0, #24
 8001690:	f7ff fe4e 	bl	8001330 <send_cmd>
 8001694:	bb40      	cbnz	r0, 80016e8 <USER_SPI_write+0x88>
 8001696:	21fe      	movs	r1, #254	; 0xfe
 8001698:	4630      	mov	r0, r6
 800169a:	f7ff fe8b 	bl	80013b4 <xmit_datablock>
 800169e:	fab0 f480 	clz	r4, r0
 80016a2:	0964      	lsrs	r4, r4, #5
 80016a4:	f7ff fe24 	bl	80012f0 <despiselect>
 80016a8:	1e20      	subs	r0, r4, #0
 80016aa:	bf18      	it	ne
 80016ac:	2001      	movne	r0, #1
 80016ae:	bd70      	pop	{r4, r5, r6, pc}
 80016b0:	f013 0f06 	tst.w	r3, #6
 80016b4:	d003      	beq.n	80016be <USER_SPI_write+0x5e>
 80016b6:	4621      	mov	r1, r4
 80016b8:	2097      	movs	r0, #151	; 0x97
 80016ba:	f7ff fe39 	bl	8001330 <send_cmd>
 80016be:	4629      	mov	r1, r5
 80016c0:	2019      	movs	r0, #25
 80016c2:	f7ff fe35 	bl	8001330 <send_cmd>
 80016c6:	2800      	cmp	r0, #0
 80016c8:	d1ec      	bne.n	80016a4 <USER_SPI_write+0x44>
 80016ca:	21fc      	movs	r1, #252	; 0xfc
 80016cc:	4630      	mov	r0, r6
 80016ce:	f7ff fe71 	bl	80013b4 <xmit_datablock>
 80016d2:	b118      	cbz	r0, 80016dc <USER_SPI_write+0x7c>
 80016d4:	3c01      	subs	r4, #1
 80016d6:	f506 7600 	add.w	r6, r6, #512	; 0x200
 80016da:	d1f6      	bne.n	80016ca <USER_SPI_write+0x6a>
 80016dc:	21fd      	movs	r1, #253	; 0xfd
 80016de:	2000      	movs	r0, #0
 80016e0:	f7ff fe68 	bl	80013b4 <xmit_datablock>
 80016e4:	2800      	cmp	r0, #0
 80016e6:	d1dd      	bne.n	80016a4 <USER_SPI_write+0x44>
 80016e8:	2401      	movs	r4, #1
 80016ea:	e7db      	b.n	80016a4 <USER_SPI_write+0x44>
 80016ec:	2004      	movs	r0, #4
 80016ee:	e7de      	b.n	80016ae <USER_SPI_write+0x4e>
 80016f0:	2003      	movs	r0, #3
 80016f2:	e7dc      	b.n	80016ae <USER_SPI_write+0x4e>
 80016f4:	2002      	movs	r0, #2
 80016f6:	e7da      	b.n	80016ae <USER_SPI_write+0x4e>
 80016f8:	20000024 	.word	0x20000024
 80016fc:	20000061 	.word	0x20000061

08001700 <USER_SPI_ioctl>:
 8001700:	b57f      	push	{r0, r1, r2, r3, r4, r5, r6, lr}
 8001702:	4615      	mov	r5, r2
 8001704:	2800      	cmp	r0, #0
 8001706:	f040 80df 	bne.w	80018c8 <USER_SPI_ioctl+0x1c8>
 800170a:	4b71      	ldr	r3, [pc, #452]	; (80018d0 <USER_SPI_ioctl+0x1d0>)
 800170c:	7818      	ldrb	r0, [r3, #0]
 800170e:	f010 0401 	ands.w	r4, r0, #1
 8001712:	f040 80db 	bne.w	80018cc <USER_SPI_ioctl+0x1cc>
 8001716:	2904      	cmp	r1, #4
 8001718:	f200 80d4 	bhi.w	80018c4 <USER_SPI_ioctl+0x1c4>
 800171c:	e8df f001 	tbb	[pc, r1]
 8001720:	4e4a0903 	.word	0x4e4a0903
 8001724:	98          	.byte	0x98
 8001725:	00          	.byte	0x00
 8001726:	f7ff fded 	bl	8001304 <spiselect>
 800172a:	fab0 f480 	clz	r4, r0
 800172e:	0964      	lsrs	r4, r4, #5
 8001730:	e006      	b.n	8001740 <USER_SPI_ioctl+0x40>
 8001732:	2100      	movs	r1, #0
 8001734:	2009      	movs	r0, #9
 8001736:	f7ff fdfb 	bl	8001330 <send_cmd>
 800173a:	4604      	mov	r4, r0
 800173c:	b128      	cbz	r0, 800174a <USER_SPI_ioctl+0x4a>
 800173e:	2401      	movs	r4, #1
 8001740:	f7ff fdd6 	bl	80012f0 <despiselect>
 8001744:	4620      	mov	r0, r4
 8001746:	b004      	add	sp, #16
 8001748:	bd70      	pop	{r4, r5, r6, pc}
 800174a:	2110      	movs	r1, #16
 800174c:	4668      	mov	r0, sp
 800174e:	f7ff fe79 	bl	8001444 <rcvr_datablock>
 8001752:	2800      	cmp	r0, #0
 8001754:	d0f3      	beq.n	800173e <USER_SPI_ioctl+0x3e>
 8001756:	f89d 3000 	ldrb.w	r3, [sp]
 800175a:	f89d 1008 	ldrb.w	r1, [sp, #8]
 800175e:	f89d 0009 	ldrb.w	r0, [sp, #9]
 8001762:	099b      	lsrs	r3, r3, #6
 8001764:	2b01      	cmp	r3, #1
 8001766:	f89d 3007 	ldrb.w	r3, [sp, #7]
 800176a:	d109      	bne.n	8001780 <USER_SPI_ioctl+0x80>
 800176c:	041a      	lsls	r2, r3, #16
 800176e:	f402 127c 	and.w	r2, r2, #4128768	; 0x3f0000
 8001772:	eb00 2101 	add.w	r1, r0, r1, lsl #8
 8001776:	3201      	adds	r2, #1
 8001778:	440a      	add	r2, r1
 800177a:	0292      	lsls	r2, r2, #10
 800177c:	602a      	str	r2, [r5, #0]
 800177e:	e7df      	b.n	8001740 <USER_SPI_ioctl+0x40>
 8001780:	f89d 2006 	ldrb.w	r2, [sp, #6]
 8001784:	009b      	lsls	r3, r3, #2
 8001786:	0292      	lsls	r2, r2, #10
 8001788:	eb03 1391 	add.w	r3, r3, r1, lsr #6
 800178c:	f402 6240 	and.w	r2, r2, #3072	; 0xc00
 8001790:	4413      	add	r3, r2
 8001792:	f89d 2005 	ldrb.w	r2, [sp, #5]
 8001796:	f89d 100a 	ldrb.w	r1, [sp, #10]
 800179a:	f002 020f 	and.w	r2, r2, #15
 800179e:	eb02 12d1 	add.w	r2, r2, r1, lsr #7
 80017a2:	0041      	lsls	r1, r0, #1
 80017a4:	f001 0106 	and.w	r1, r1, #6
 80017a8:	440a      	add	r2, r1
 80017aa:	3301      	adds	r3, #1
 80017ac:	3a07      	subs	r2, #7
 80017ae:	4093      	lsls	r3, r2
 80017b0:	602b      	str	r3, [r5, #0]
 80017b2:	e7c5      	b.n	8001740 <USER_SPI_ioctl+0x40>
 80017b4:	f44f 7300 	mov.w	r3, #512	; 0x200
 80017b8:	8013      	strh	r3, [r2, #0]
 80017ba:	e7c1      	b.n	8001740 <USER_SPI_ioctl+0x40>
 80017bc:	4e45      	ldr	r6, [pc, #276]	; (80018d4 <USER_SPI_ioctl+0x1d4>)
 80017be:	7831      	ldrb	r1, [r6, #0]
 80017c0:	f011 0104 	ands.w	r1, r1, #4
 80017c4:	d01b      	beq.n	80017fe <USER_SPI_ioctl+0xfe>
 80017c6:	2100      	movs	r1, #0
 80017c8:	208d      	movs	r0, #141	; 0x8d
 80017ca:	f7ff fdb1 	bl	8001330 <send_cmd>
 80017ce:	2800      	cmp	r0, #0
 80017d0:	d1b5      	bne.n	800173e <USER_SPI_ioctl+0x3e>
 80017d2:	20ff      	movs	r0, #255	; 0xff
 80017d4:	f7ff fd66 	bl	80012a4 <recv_spi>
 80017d8:	2110      	movs	r1, #16
 80017da:	4668      	mov	r0, sp
 80017dc:	f7ff fe32 	bl	8001444 <rcvr_datablock>
 80017e0:	2800      	cmp	r0, #0
 80017e2:	d0ac      	beq.n	800173e <USER_SPI_ioctl+0x3e>
 80017e4:	2430      	movs	r4, #48	; 0x30
 80017e6:	20ff      	movs	r0, #255	; 0xff
 80017e8:	f7ff fd5c 	bl	80012a4 <recv_spi>
 80017ec:	1e60      	subs	r0, r4, #1
 80017ee:	f010 04ff 	ands.w	r4, r0, #255	; 0xff
 80017f2:	d1f8      	bne.n	80017e6 <USER_SPI_ioctl+0xe6>
 80017f4:	f89d 300a 	ldrb.w	r3, [sp, #10]
 80017f8:	091a      	lsrs	r2, r3, #4
 80017fa:	2310      	movs	r3, #16
 80017fc:	e7d7      	b.n	80017ae <USER_SPI_ioctl+0xae>
 80017fe:	2009      	movs	r0, #9
 8001800:	f7ff fd96 	bl	8001330 <send_cmd>
 8001804:	4604      	mov	r4, r0
 8001806:	2800      	cmp	r0, #0
 8001808:	d199      	bne.n	800173e <USER_SPI_ioctl+0x3e>
 800180a:	2110      	movs	r1, #16
 800180c:	4668      	mov	r0, sp
 800180e:	f7ff fe19 	bl	8001444 <rcvr_datablock>
 8001812:	2800      	cmp	r0, #0
 8001814:	d093      	beq.n	800173e <USER_SPI_ioctl+0x3e>
 8001816:	7832      	ldrb	r2, [r6, #0]
 8001818:	f89d 300a 	ldrb.w	r3, [sp, #10]
 800181c:	f89d 100b 	ldrb.w	r1, [sp, #11]
 8001820:	0792      	lsls	r2, r2, #30
 8001822:	d50a      	bpl.n	800183a <USER_SPI_ioctl+0x13a>
 8001824:	f89d 200d 	ldrb.w	r2, [sp, #13]
 8001828:	005b      	lsls	r3, r3, #1
 800182a:	f003 037e 	and.w	r3, r3, #126	; 0x7e
 800182e:	eb03 13d1 	add.w	r3, r3, r1, lsr #7
 8001832:	0992      	lsrs	r2, r2, #6
 8001834:	3301      	adds	r3, #1
 8001836:	3a01      	subs	r2, #1
 8001838:	e7b9      	b.n	80017ae <USER_SPI_ioctl+0xae>
 800183a:	00ca      	lsls	r2, r1, #3
 800183c:	f002 0218 	and.w	r2, r2, #24
 8001840:	f3c3 0384 	ubfx	r3, r3, #2, #5
 8001844:	eb02 1251 	add.w	r2, r2, r1, lsr #5
 8001848:	3301      	adds	r3, #1
 800184a:	fb02 3303 	mla	r3, r2, r3, r3
 800184e:	e7af      	b.n	80017b0 <USER_SPI_ioctl+0xb0>
 8001850:	4e20      	ldr	r6, [pc, #128]	; (80018d4 <USER_SPI_ioctl+0x1d4>)
 8001852:	7833      	ldrb	r3, [r6, #0]
 8001854:	f013 0f06 	tst.w	r3, #6
 8001858:	f43f af71 	beq.w	800173e <USER_SPI_ioctl+0x3e>
 800185c:	466a      	mov	r2, sp
 800185e:	210b      	movs	r1, #11
 8001860:	2000      	movs	r0, #0
 8001862:	f7ff ff4d 	bl	8001700 <USER_SPI_ioctl>
 8001866:	2800      	cmp	r0, #0
 8001868:	f47f af69 	bne.w	800173e <USER_SPI_ioctl+0x3e>
 800186c:	f89d 300a 	ldrb.w	r3, [sp, #10]
 8001870:	f89d 2000 	ldrb.w	r2, [sp]
 8001874:	f003 0340 	and.w	r3, r3, #64	; 0x40
 8001878:	ea53 1392 	orrs.w	r3, r3, r2, lsr #6
 800187c:	f43f af5f 	beq.w	800173e <USER_SPI_ioctl+0x3e>
 8001880:	e9d5 1400 	ldrd	r1, r4, [r5]
 8001884:	7833      	ldrb	r3, [r6, #0]
 8001886:	071b      	lsls	r3, r3, #28
 8001888:	bf58      	it	pl
 800188a:	0249      	lslpl	r1, r1, #9
 800188c:	f04f 0020 	mov.w	r0, #32
 8001890:	bf58      	it	pl
 8001892:	0264      	lslpl	r4, r4, #9
 8001894:	f7ff fd4c 	bl	8001330 <send_cmd>
 8001898:	2800      	cmp	r0, #0
 800189a:	f47f af50 	bne.w	800173e <USER_SPI_ioctl+0x3e>
 800189e:	4621      	mov	r1, r4
 80018a0:	2021      	movs	r0, #33	; 0x21
 80018a2:	f7ff fd45 	bl	8001330 <send_cmd>
 80018a6:	4601      	mov	r1, r0
 80018a8:	2800      	cmp	r0, #0
 80018aa:	f47f af48 	bne.w	800173e <USER_SPI_ioctl+0x3e>
 80018ae:	2026      	movs	r0, #38	; 0x26
 80018b0:	f7ff fd3e 	bl	8001330 <send_cmd>
 80018b4:	2800      	cmp	r0, #0
 80018b6:	f47f af42 	bne.w	800173e <USER_SPI_ioctl+0x3e>
 80018ba:	f247 5030 	movw	r0, #30000	; 0x7530
 80018be:	f7ff fd01 	bl	80012c4 <wait_ready>
 80018c2:	e732      	b.n	800172a <USER_SPI_ioctl+0x2a>
 80018c4:	2404      	movs	r4, #4
 80018c6:	e73b      	b.n	8001740 <USER_SPI_ioctl+0x40>
 80018c8:	2404      	movs	r4, #4
 80018ca:	e73b      	b.n	8001744 <USER_SPI_ioctl+0x44>
 80018cc:	2403      	movs	r4, #3
 80018ce:	e739      	b.n	8001744 <USER_SPI_ioctl+0x44>
 80018d0:	20000024 	.word	0x20000024
 80018d4:	20000061 	.word	0x20000061

080018d8 <disk_status>:
 80018d8:	4b03      	ldr	r3, [pc, #12]	; (80018e8 <disk_status+0x10>)
 80018da:	181a      	adds	r2, r3, r0
 80018dc:	eb03 0380 	add.w	r3, r3, r0, lsl #2
 80018e0:	7a10      	ldrb	r0, [r2, #8]
 80018e2:	685b      	ldr	r3, [r3, #4]
 80018e4:	685b      	ldr	r3, [r3, #4]
 80018e6:	4718      	bx	r3
 80018e8:	20000294 	.word	0x20000294

080018ec <disk_initialize>:
 80018ec:	4b06      	ldr	r3, [pc, #24]	; (8001908 <disk_initialize+0x1c>)
 80018ee:	5c1a      	ldrb	r2, [r3, r0]
 80018f0:	b942      	cbnz	r2, 8001904 <disk_initialize+0x18>
 80018f2:	2201      	movs	r2, #1
 80018f4:	541a      	strb	r2, [r3, r0]
 80018f6:	181a      	adds	r2, r3, r0
 80018f8:	eb03 0380 	add.w	r3, r3, r0, lsl #2
 80018fc:	7a10      	ldrb	r0, [r2, #8]
 80018fe:	685b      	ldr	r3, [r3, #4]
 8001900:	681b      	ldr	r3, [r3, #0]
 8001902:	4718      	bx	r3
 8001904:	2000      	movs	r0, #0
 8001906:	4770      	bx	lr
 8001908:	20000294 	.word	0x20000294

0800190c <disk_read>:
 800190c:	b430      	push	{r4, r5}
 800190e:	4c05      	ldr	r4, [pc, #20]	; (8001924 <disk_read+0x18>)
 8001910:	1825      	adds	r5, r4, r0
 8001912:	eb04 0480 	add.w	r4, r4, r0, lsl #2
 8001916:	6860      	ldr	r0, [r4, #4]
 8001918:	6884      	ldr	r4, [r0, #8]
 800191a:	7a28      	ldrb	r0, [r5, #8]
 800191c:	46a4      	mov	ip, r4
 800191e:	bc30      	pop	{r4, r5}
 8001920:	4760      	bx	ip
 8001922:	bf00      	nop
 8001924:	20000294 	.word	0x20000294

08001928 <disk_write>:
 8001928:	b430      	push	{r4, r5}
 800192a:	4c05      	ldr	r4, [pc, #20]	; (8001940 <disk_write+0x18>)
 800192c:	1825      	adds	r5, r4, r0
 800192e:	eb04 0480 	add.w	r4, r4, r0, lsl #2
 8001932:	6860      	ldr	r0, [r4, #4]
 8001934:	68c4      	ldr	r4, [r0, #12]
 8001936:	7a28      	ldrb	r0, [r5, #8]
 8001938:	46a4      	mov	ip, r4
 800193a:	bc30      	pop	{r4, r5}
 800193c:	4760      	bx	ip
 800193e:	bf00      	nop
 8001940:	20000294 	.word	0x20000294

08001944 <disk_ioctl>:
 8001944:	4b05      	ldr	r3, [pc, #20]	; (800195c <disk_ioctl+0x18>)
 8001946:	b410      	push	{r4}
 8001948:	181c      	adds	r4, r3, r0
 800194a:	eb03 0380 	add.w	r3, r3, r0, lsl #2
 800194e:	7a20      	ldrb	r0, [r4, #8]
 8001950:	685b      	ldr	r3, [r3, #4]
 8001952:	f85d 4b04 	ldr.w	r4, [sp], #4
 8001956:	691b      	ldr	r3, [r3, #16]
 8001958:	4718      	bx	r3
 800195a:	bf00      	nop
 800195c:	20000294 	.word	0x20000294

08001960 <ld_dword>:
 8001960:	6800      	ldr	r0, [r0, #0]
 8001962:	4770      	bx	lr

08001964 <st_dword>:
 8001964:	0a0b      	lsrs	r3, r1, #8
 8001966:	7001      	strb	r1, [r0, #0]
 8001968:	7043      	strb	r3, [r0, #1]
 800196a:	0c0b      	lsrs	r3, r1, #16
 800196c:	0e09      	lsrs	r1, r1, #24
 800196e:	7083      	strb	r3, [r0, #2]
 8001970:	70c1      	strb	r1, [r0, #3]
 8001972:	4770      	bx	lr

08001974 <clear_lock>:
 8001974:	4b05      	ldr	r3, [pc, #20]	; (800198c <clear_lock+0x18>)
 8001976:	681a      	ldr	r2, [r3, #0]
 8001978:	4290      	cmp	r0, r2
 800197a:	bf04      	itt	eq
 800197c:	2200      	moveq	r2, #0
 800197e:	601a      	streq	r2, [r3, #0]
 8001980:	691a      	ldr	r2, [r3, #16]
 8001982:	4290      	cmp	r0, r2
 8001984:	bf04      	itt	eq
 8001986:	2200      	moveq	r2, #0
 8001988:	611a      	streq	r2, [r3, #16]
 800198a:	4770      	bx	lr
 800198c:	20000070 	.word	0x20000070

08001990 <clust2sect>:
 8001990:	69c3      	ldr	r3, [r0, #28]
 8001992:	3902      	subs	r1, #2
 8001994:	3b02      	subs	r3, #2
 8001996:	428b      	cmp	r3, r1
 8001998:	bf83      	ittte	hi
 800199a:	8943      	ldrhhi	r3, [r0, #10]
 800199c:	6b00      	ldrhi	r0, [r0, #48]	; 0x30
 800199e:	fb01 0003 	mlahi	r0, r1, r3, r0
 80019a2:	2000      	movls	r0, #0
 80019a4:	4770      	bx	lr

080019a6 <get_ldnumber>:
 80019a6:	6802      	ldr	r2, [r0, #0]
 80019a8:	b510      	push	{r4, lr}
 80019aa:	b152      	cbz	r2, 80019c2 <get_ldnumber+0x1c>
 80019ac:	4611      	mov	r1, r2
 80019ae:	460b      	mov	r3, r1
 80019b0:	f811 4b01 	ldrb.w	r4, [r1], #1
 80019b4:	2c1f      	cmp	r4, #31
 80019b6:	d90c      	bls.n	80019d2 <get_ldnumber+0x2c>
 80019b8:	2c3a      	cmp	r4, #58	; 0x3a
 80019ba:	d1f8      	bne.n	80019ae <get_ldnumber+0x8>
 80019bc:	1c51      	adds	r1, r2, #1
 80019be:	428b      	cmp	r3, r1
 80019c0:	d002      	beq.n	80019c8 <get_ldnumber+0x22>
 80019c2:	f04f 30ff 	mov.w	r0, #4294967295	; 0xffffffff
 80019c6:	e005      	b.n	80019d4 <get_ldnumber+0x2e>
 80019c8:	7812      	ldrb	r2, [r2, #0]
 80019ca:	2a30      	cmp	r2, #48	; 0x30
 80019cc:	d1f9      	bne.n	80019c2 <get_ldnumber+0x1c>
 80019ce:	3301      	adds	r3, #1
 80019d0:	6003      	str	r3, [r0, #0]
 80019d2:	2000      	movs	r0, #0
 80019d4:	bd10      	pop	{r4, pc}

080019d6 <validate>:
 80019d6:	b538      	push	{r3, r4, r5, lr}
 80019d8:	460d      	mov	r5, r1
 80019da:	4604      	mov	r4, r0
 80019dc:	b918      	cbnz	r0, 80019e6 <validate+0x10>
 80019de:	2009      	movs	r0, #9
 80019e0:	2300      	movs	r3, #0
 80019e2:	602b      	str	r3, [r5, #0]
 80019e4:	bd38      	pop	{r3, r4, r5, pc}
 80019e6:	6803      	ldr	r3, [r0, #0]
 80019e8:	2b00      	cmp	r3, #0
 80019ea:	d0f8      	beq.n	80019de <validate+0x8>
 80019ec:	781a      	ldrb	r2, [r3, #0]
 80019ee:	2a00      	cmp	r2, #0
 80019f0:	d0f5      	beq.n	80019de <validate+0x8>
 80019f2:	8881      	ldrh	r1, [r0, #4]
 80019f4:	88da      	ldrh	r2, [r3, #6]
 80019f6:	4291      	cmp	r1, r2
 80019f8:	d1f1      	bne.n	80019de <validate+0x8>
 80019fa:	7858      	ldrb	r0, [r3, #1]
 80019fc:	f7ff ff6c 	bl	80018d8 <disk_status>
 8001a00:	f010 0001 	ands.w	r0, r0, #1
 8001a04:	d1eb      	bne.n	80019de <validate+0x8>
 8001a06:	6823      	ldr	r3, [r4, #0]
 8001a08:	e7eb      	b.n	80019e2 <validate+0xc>

08001a0a <mem_cpy.part.0>:
 8001a0a:	3801      	subs	r0, #1
 8001a0c:	440a      	add	r2, r1
 8001a0e:	f811 3b01 	ldrb.w	r3, [r1], #1
 8001a12:	f800 3f01 	strb.w	r3, [r0, #1]!
 8001a16:	4291      	cmp	r1, r2
 8001a18:	d1f9      	bne.n	8001a0e <mem_cpy.part.0+0x4>
 8001a1a:	4770      	bx	lr

08001a1c <sync_window.part.0>:
 8001a1c:	e92d 41f0 	stmdb	sp!, {r4, r5, r6, r7, r8, lr}
 8001a20:	6b46      	ldr	r6, [r0, #52]	; 0x34
 8001a22:	f100 0838 	add.w	r8, r0, #56	; 0x38
 8001a26:	4604      	mov	r4, r0
 8001a28:	2301      	movs	r3, #1
 8001a2a:	7840      	ldrb	r0, [r0, #1]
 8001a2c:	4632      	mov	r2, r6
 8001a2e:	4641      	mov	r1, r8
 8001a30:	f7ff ff7a 	bl	8001928 <disk_write>
 8001a34:	4605      	mov	r5, r0
 8001a36:	b9a8      	cbnz	r0, 8001a64 <sync_window.part.0+0x48>
 8001a38:	6aa3      	ldr	r3, [r4, #40]	; 0x28
 8001a3a:	6a22      	ldr	r2, [r4, #32]
 8001a3c:	70e0      	strb	r0, [r4, #3]
 8001a3e:	1af3      	subs	r3, r6, r3
 8001a40:	4293      	cmp	r3, r2
 8001a42:	d202      	bcs.n	8001a4a <sync_window.part.0+0x2e>
 8001a44:	78a7      	ldrb	r7, [r4, #2]
 8001a46:	2f01      	cmp	r7, #1
 8001a48:	d802      	bhi.n	8001a50 <sync_window.part.0+0x34>
 8001a4a:	4628      	mov	r0, r5
 8001a4c:	e8bd 81f0 	ldmia.w	sp!, {r4, r5, r6, r7, r8, pc}
 8001a50:	6a23      	ldr	r3, [r4, #32]
 8001a52:	7860      	ldrb	r0, [r4, #1]
 8001a54:	441e      	add	r6, r3
 8001a56:	4632      	mov	r2, r6
 8001a58:	2301      	movs	r3, #1
 8001a5a:	4641      	mov	r1, r8
 8001a5c:	f7ff ff64 	bl	8001928 <disk_write>
 8001a60:	3f01      	subs	r7, #1
 8001a62:	e7f0      	b.n	8001a46 <sync_window.part.0+0x2a>
 8001a64:	2501      	movs	r5, #1
 8001a66:	e7f0      	b.n	8001a4a <sync_window.part.0+0x2e>

08001a68 <move_window>:
 8001a68:	b538      	push	{r3, r4, r5, lr}
 8001a6a:	6b43      	ldr	r3, [r0, #52]	; 0x34
 8001a6c:	428b      	cmp	r3, r1
 8001a6e:	4604      	mov	r4, r0
 8001a70:	460d      	mov	r5, r1
 8001a72:	d014      	beq.n	8001a9e <move_window+0x36>
 8001a74:	78c3      	ldrb	r3, [r0, #3]
 8001a76:	b96b      	cbnz	r3, 8001a94 <move_window+0x2c>
 8001a78:	462a      	mov	r2, r5
 8001a7a:	7860      	ldrb	r0, [r4, #1]
 8001a7c:	2301      	movs	r3, #1
 8001a7e:	f104 0138 	add.w	r1, r4, #56	; 0x38
 8001a82:	f7ff ff43 	bl	800190c <disk_read>
 8001a86:	2800      	cmp	r0, #0
 8001a88:	bf1c      	itt	ne
 8001a8a:	f04f 35ff 	movne.w	r5, #4294967295	; 0xffffffff
 8001a8e:	2001      	movne	r0, #1
 8001a90:	6365      	str	r5, [r4, #52]	; 0x34
 8001a92:	bd38      	pop	{r3, r4, r5, pc}
 8001a94:	f7ff ffc2 	bl	8001a1c <sync_window.part.0>
 8001a98:	2800      	cmp	r0, #0
 8001a9a:	d1fa      	bne.n	8001a92 <move_window+0x2a>
 8001a9c:	e7ec      	b.n	8001a78 <move_window+0x10>
 8001a9e:	2000      	movs	r0, #0
 8001aa0:	e7f7      	b.n	8001a92 <move_window+0x2a>
	...

08001aa4 <check_fs>:
 8001aa4:	2300      	movs	r3, #0
 8001aa6:	b510      	push	{r4, lr}
 8001aa8:	70c3      	strb	r3, [r0, #3]
 8001aaa:	f04f 33ff 	mov.w	r3, #4294967295	; 0xffffffff
 8001aae:	6343      	str	r3, [r0, #52]	; 0x34
 8001ab0:	4604      	mov	r4, r0
 8001ab2:	f7ff ffd9 	bl	8001a68 <move_window>
 8001ab6:	4603      	mov	r3, r0
 8001ab8:	bb18      	cbnz	r0, 8001b02 <check_fs+0x5e>
 8001aba:	f8b4 1236 	ldrh.w	r1, [r4, #566]	; 0x236
 8001abe:	f64a 2255 	movw	r2, #43605	; 0xaa55
 8001ac2:	4291      	cmp	r1, r2
 8001ac4:	d11f      	bne.n	8001b06 <check_fs+0x62>
 8001ac6:	f894 2038 	ldrb.w	r2, [r4, #56]	; 0x38
 8001aca:	2ae9      	cmp	r2, #233	; 0xe9
 8001acc:	d005      	beq.n	8001ada <check_fs+0x36>
 8001ace:	6ba2      	ldr	r2, [r4, #56]	; 0x38
 8001ad0:	490f      	ldr	r1, [pc, #60]	; (8001b10 <check_fs+0x6c>)
 8001ad2:	f002 12ff 	and.w	r2, r2, #16711935	; 0xff00ff
 8001ad6:	428a      	cmp	r2, r1
 8001ad8:	d117      	bne.n	8001b0a <check_fs+0x66>
 8001ada:	f104 006e 	add.w	r0, r4, #110	; 0x6e
 8001ade:	f7ff ff3f 	bl	8001960 <ld_dword>
 8001ae2:	4a0c      	ldr	r2, [pc, #48]	; (8001b14 <check_fs+0x70>)
 8001ae4:	f020 407f 	bic.w	r0, r0, #4278190080	; 0xff000000
 8001ae8:	4290      	cmp	r0, r2
 8001aea:	d008      	beq.n	8001afe <check_fs+0x5a>
 8001aec:	f104 008a 	add.w	r0, r4, #138	; 0x8a
 8001af0:	f7ff ff36 	bl	8001960 <ld_dword>
 8001af4:	f102 524c 	add.w	r2, r2, #855638016	; 0x33000000
 8001af8:	4290      	cmp	r0, r2
 8001afa:	bf18      	it	ne
 8001afc:	2302      	movne	r3, #2
 8001afe:	4618      	mov	r0, r3
 8001b00:	bd10      	pop	{r4, pc}
 8001b02:	2304      	movs	r3, #4
 8001b04:	e7fb      	b.n	8001afe <check_fs+0x5a>
 8001b06:	2303      	movs	r3, #3
 8001b08:	e7f9      	b.n	8001afe <check_fs+0x5a>
 8001b0a:	2302      	movs	r3, #2
 8001b0c:	e7f7      	b.n	8001afe <check_fs+0x5a>
 8001b0e:	bf00      	nop
 8001b10:	009000eb 	.word	0x009000eb
 8001b14:	00544146 	.word	0x00544146

08001b18 <find_volume>:
 8001b18:	e92d 43f0 	stmdb	sp!, {r4, r5, r6, r7, r8, r9, lr}
 8001b1c:	2300      	movs	r3, #0
 8001b1e:	b085      	sub	sp, #20
 8001b20:	600b      	str	r3, [r1, #0]
 8001b22:	460f      	mov	r7, r1
 8001b24:	4615      	mov	r5, r2
 8001b26:	f7ff ff3e 	bl	80019a6 <get_ldnumber>
 8001b2a:	1e06      	subs	r6, r0, #0
 8001b2c:	f2c0 8134 	blt.w	8001d98 <find_volume+0x280>
 8001b30:	4b9c      	ldr	r3, [pc, #624]	; (8001da4 <find_volume+0x28c>)
 8001b32:	f853 4026 	ldr.w	r4, [r3, r6, lsl #2]
 8001b36:	2c00      	cmp	r4, #0
 8001b38:	f000 8130 	beq.w	8001d9c <find_volume+0x284>
 8001b3c:	603c      	str	r4, [r7, #0]
 8001b3e:	7823      	ldrb	r3, [r4, #0]
 8001b40:	f005 05fe 	and.w	r5, r5, #254	; 0xfe
 8001b44:	b16b      	cbz	r3, 8001b62 <find_volume+0x4a>
 8001b46:	7860      	ldrb	r0, [r4, #1]
 8001b48:	f7ff fec6 	bl	80018d8 <disk_status>
 8001b4c:	07c1      	lsls	r1, r0, #31
 8001b4e:	d408      	bmi.n	8001b62 <find_volume+0x4a>
 8001b50:	b11d      	cbz	r5, 8001b5a <find_volume+0x42>
 8001b52:	f010 0504 	ands.w	r5, r0, #4
 8001b56:	d000      	beq.n	8001b5a <find_volume+0x42>
 8001b58:	250a      	movs	r5, #10
 8001b5a:	4628      	mov	r0, r5
 8001b5c:	b005      	add	sp, #20
 8001b5e:	e8bd 83f0 	ldmia.w	sp!, {r4, r5, r6, r7, r8, r9, pc}
 8001b62:	2300      	movs	r3, #0
 8001b64:	b2f0      	uxtb	r0, r6
 8001b66:	7023      	strb	r3, [r4, #0]
 8001b68:	7060      	strb	r0, [r4, #1]
 8001b6a:	f7ff febf 	bl	80018ec <disk_initialize>
 8001b6e:	07c2      	lsls	r2, r0, #31
 8001b70:	f100 8116 	bmi.w	8001da0 <find_volume+0x288>
 8001b74:	b10d      	cbz	r5, 8001b7a <find_volume+0x62>
 8001b76:	0743      	lsls	r3, r0, #29
 8001b78:	d4ee      	bmi.n	8001b58 <find_volume+0x40>
 8001b7a:	7860      	ldrb	r0, [r4, #1]
 8001b7c:	f104 020c 	add.w	r2, r4, #12
 8001b80:	2102      	movs	r1, #2
 8001b82:	f7ff fedf 	bl	8001944 <disk_ioctl>
 8001b86:	4605      	mov	r5, r0
 8001b88:	b108      	cbz	r0, 8001b8e <find_volume+0x76>
 8001b8a:	2501      	movs	r5, #1
 8001b8c:	e7e5      	b.n	8001b5a <find_volume+0x42>
 8001b8e:	89a3      	ldrh	r3, [r4, #12]
 8001b90:	f5a3 7200 	sub.w	r2, r3, #512	; 0x200
 8001b94:	f5b2 6f60 	cmp.w	r2, #3584	; 0xe00
 8001b98:	d8f7      	bhi.n	8001b8a <find_volume+0x72>
 8001b9a:	1e5a      	subs	r2, r3, #1
 8001b9c:	421a      	tst	r2, r3
 8001b9e:	d1f4      	bne.n	8001b8a <find_volume+0x72>
 8001ba0:	4601      	mov	r1, r0
 8001ba2:	4620      	mov	r0, r4
 8001ba4:	f7ff ff7e 	bl	8001aa4 <check_fs>
 8001ba8:	2802      	cmp	r0, #2
 8001baa:	f040 80d8 	bne.w	8001d5e <find_volume+0x246>
 8001bae:	466e      	mov	r6, sp
 8001bb0:	f504 73ff 	add.w	r3, r4, #510	; 0x1fe
 8001bb4:	f204 213e 	addw	r1, r4, #574	; 0x23e
 8001bb8:	4632      	mov	r2, r6
 8001bba:	f813 0c04 	ldrb.w	r0, [r3, #-4]
 8001bbe:	b110      	cbz	r0, 8001bc6 <find_volume+0xae>
 8001bc0:	4618      	mov	r0, r3
 8001bc2:	f7ff fecd 	bl	8001960 <ld_dword>
 8001bc6:	3310      	adds	r3, #16
 8001bc8:	428b      	cmp	r3, r1
 8001bca:	f842 0b04 	str.w	r0, [r2], #4
 8001bce:	d1f4      	bne.n	8001bba <find_volume+0xa2>
 8001bd0:	f04f 0800 	mov.w	r8, #0
 8001bd4:	f856 7b04 	ldr.w	r7, [r6], #4
 8001bd8:	2f00      	cmp	r7, #0
 8001bda:	f000 80b6 	beq.w	8001d4a <find_volume+0x232>
 8001bde:	4639      	mov	r1, r7
 8001be0:	4620      	mov	r0, r4
 8001be2:	f7ff ff5f 	bl	8001aa4 <check_fs>
 8001be6:	2801      	cmp	r0, #1
 8001be8:	f200 80b0 	bhi.w	8001d4c <find_volume+0x234>
 8001bec:	f8b4 900c 	ldrh.w	r9, [r4, #12]
 8001bf0:	f8b4 3043 	ldrh.w	r3, [r4, #67]	; 0x43
 8001bf4:	454b      	cmp	r3, r9
 8001bf6:	f040 80b7 	bne.w	8001d68 <find_volume+0x250>
 8001bfa:	f8b4 104e 	ldrh.w	r1, [r4, #78]	; 0x4e
 8001bfe:	b921      	cbnz	r1, 8001c0a <find_volume+0xf2>
 8001c00:	f104 005c 	add.w	r0, r4, #92	; 0x5c
 8001c04:	f7ff feac 	bl	8001960 <ld_dword>
 8001c08:	4601      	mov	r1, r0
 8001c0a:	f894 3048 	ldrb.w	r3, [r4, #72]	; 0x48
 8001c0e:	6221      	str	r1, [r4, #32]
 8001c10:	1e5a      	subs	r2, r3, #1
 8001c12:	2a01      	cmp	r2, #1
 8001c14:	70a3      	strb	r3, [r4, #2]
 8001c16:	f200 80a7 	bhi.w	8001d68 <find_volume+0x250>
 8001c1a:	f894 6045 	ldrb.w	r6, [r4, #69]	; 0x45
 8001c1e:	8166      	strh	r6, [r4, #10]
 8001c20:	2e00      	cmp	r6, #0
 8001c22:	f000 80a1 	beq.w	8001d68 <find_volume+0x250>
 8001c26:	1e72      	subs	r2, r6, #1
 8001c28:	4232      	tst	r2, r6
 8001c2a:	f040 809d 	bne.w	8001d68 <find_volume+0x250>
 8001c2e:	f8b4 8049 	ldrh.w	r8, [r4, #73]	; 0x49
 8001c32:	f8a4 8008 	strh.w	r8, [r4, #8]
 8001c36:	ea4f 1059 	mov.w	r0, r9, lsr #5
 8001c3a:	fbb8 f2f0 	udiv	r2, r8, r0
 8001c3e:	fb00 8012 	mls	r0, r0, r2, r8
 8001c42:	b280      	uxth	r0, r0
 8001c44:	2800      	cmp	r0, #0
 8001c46:	f040 808f 	bne.w	8001d68 <find_volume+0x250>
 8001c4a:	f8b4 004b 	ldrh.w	r0, [r4, #75]	; 0x4b
 8001c4e:	b918      	cbnz	r0, 8001c58 <find_volume+0x140>
 8001c50:	f104 0058 	add.w	r0, r4, #88	; 0x58
 8001c54:	f7ff fe84 	bl	8001960 <ld_dword>
 8001c58:	f8b4 c046 	ldrh.w	ip, [r4, #70]	; 0x46
 8001c5c:	f1bc 0f00 	cmp.w	ip, #0
 8001c60:	f000 8082 	beq.w	8001d68 <find_volume+0x250>
 8001c64:	fb01 fe03 	mul.w	lr, r1, r3
 8001c68:	4462      	add	r2, ip
 8001c6a:	4472      	add	r2, lr
 8001c6c:	4290      	cmp	r0, r2
 8001c6e:	d37b      	bcc.n	8001d68 <find_volume+0x250>
 8001c70:	1a80      	subs	r0, r0, r2
 8001c72:	42b0      	cmp	r0, r6
 8001c74:	fbb0 f3f6 	udiv	r3, r0, r6
 8001c78:	d376      	bcc.n	8001d68 <find_volume+0x250>
 8001c7a:	f64f 70f5 	movw	r0, #65525	; 0xfff5
 8001c7e:	4283      	cmp	r3, r0
 8001c80:	d876      	bhi.n	8001d70 <find_volume+0x258>
 8001c82:	f640 76f5 	movw	r6, #4085	; 0xff5
 8001c86:	42b3      	cmp	r3, r6
 8001c88:	bf8c      	ite	hi
 8001c8a:	2602      	movhi	r6, #2
 8001c8c:	2601      	movls	r6, #1
 8001c8e:	3302      	adds	r3, #2
 8001c90:	eb0c 0007 	add.w	r0, ip, r7
 8001c94:	443a      	add	r2, r7
 8001c96:	2e03      	cmp	r6, #3
 8001c98:	61e3      	str	r3, [r4, #28]
 8001c9a:	6267      	str	r7, [r4, #36]	; 0x24
 8001c9c:	62a0      	str	r0, [r4, #40]	; 0x28
 8001c9e:	6322      	str	r2, [r4, #48]	; 0x30
 8001ca0:	d168      	bne.n	8001d74 <find_volume+0x25c>
 8001ca2:	f8b4 2062 	ldrh.w	r2, [r4, #98]	; 0x62
 8001ca6:	ea52 0208 	orrs.w	r2, r2, r8
 8001caa:	d15d      	bne.n	8001d68 <find_volume+0x250>
 8001cac:	f104 0064 	add.w	r0, r4, #100	; 0x64
 8001cb0:	f7ff fe56 	bl	8001960 <ld_dword>
 8001cb4:	009b      	lsls	r3, r3, #2
 8001cb6:	62e0      	str	r0, [r4, #44]	; 0x2c
 8001cb8:	f109 32ff 	add.w	r2, r9, #4294967295	; 0xffffffff
 8001cbc:	4413      	add	r3, r2
 8001cbe:	fbb3 f9f9 	udiv	r9, r3, r9
 8001cc2:	4589      	cmp	r9, r1
 8001cc4:	d850      	bhi.n	8001d68 <find_volume+0x250>
 8001cc6:	f04f 33ff 	mov.w	r3, #4294967295	; 0xffffffff
 8001cca:	e9c4 3305 	strd	r3, r3, [r4, #20]
 8001cce:	2e03      	cmp	r6, #3
 8001cd0:	f04f 0380 	mov.w	r3, #128	; 0x80
 8001cd4:	7123      	strb	r3, [r4, #4]
 8001cd6:	d12b      	bne.n	8001d30 <find_volume+0x218>
 8001cd8:	f8b4 3068 	ldrh.w	r3, [r4, #104]	; 0x68
 8001cdc:	2b01      	cmp	r3, #1
 8001cde:	d127      	bne.n	8001d30 <find_volume+0x218>
 8001ce0:	1c79      	adds	r1, r7, #1
 8001ce2:	4620      	mov	r0, r4
 8001ce4:	f7ff fec0 	bl	8001a68 <move_window>
 8001ce8:	bb10      	cbnz	r0, 8001d30 <find_volume+0x218>
 8001cea:	f8b4 2236 	ldrh.w	r2, [r4, #566]	; 0x236
 8001cee:	7120      	strb	r0, [r4, #4]
 8001cf0:	f64a 2355 	movw	r3, #43605	; 0xaa55
 8001cf4:	429a      	cmp	r2, r3
 8001cf6:	d11b      	bne.n	8001d30 <find_volume+0x218>
 8001cf8:	f104 0038 	add.w	r0, r4, #56	; 0x38
 8001cfc:	f7ff fe30 	bl	8001960 <ld_dword>
 8001d00:	4b29      	ldr	r3, [pc, #164]	; (8001da8 <find_volume+0x290>)
 8001d02:	4298      	cmp	r0, r3
 8001d04:	d114      	bne.n	8001d30 <find_volume+0x218>
 8001d06:	f504 7007 	add.w	r0, r4, #540	; 0x21c
 8001d0a:	f7ff fe29 	bl	8001960 <ld_dword>
 8001d0e:	f103 53ff 	add.w	r3, r3, #534773760	; 0x1fe00000
 8001d12:	f503 5300 	add.w	r3, r3, #8192	; 0x2000
 8001d16:	3320      	adds	r3, #32
 8001d18:	4298      	cmp	r0, r3
 8001d1a:	d109      	bne.n	8001d30 <find_volume+0x218>
 8001d1c:	f504 7008 	add.w	r0, r4, #544	; 0x220
 8001d20:	f7ff fe1e 	bl	8001960 <ld_dword>
 8001d24:	61a0      	str	r0, [r4, #24]
 8001d26:	f504 7009 	add.w	r0, r4, #548	; 0x224
 8001d2a:	f7ff fe19 	bl	8001960 <ld_dword>
 8001d2e:	6160      	str	r0, [r4, #20]
 8001d30:	4a1e      	ldr	r2, [pc, #120]	; (8001dac <find_volume+0x294>)
 8001d32:	7026      	strb	r6, [r4, #0]
 8001d34:	8813      	ldrh	r3, [r2, #0]
 8001d36:	3301      	adds	r3, #1
 8001d38:	b29b      	uxth	r3, r3
 8001d3a:	8013      	strh	r3, [r2, #0]
 8001d3c:	80e3      	strh	r3, [r4, #6]
 8001d3e:	4b1c      	ldr	r3, [pc, #112]	; (8001db0 <find_volume+0x298>)
 8001d40:	6123      	str	r3, [r4, #16]
 8001d42:	4620      	mov	r0, r4
 8001d44:	f7ff fe16 	bl	8001974 <clear_lock>
 8001d48:	e707      	b.n	8001b5a <find_volume+0x42>
 8001d4a:	2003      	movs	r0, #3
 8001d4c:	f108 0801 	add.w	r8, r8, #1
 8001d50:	f1b8 0f04 	cmp.w	r8, #4
 8001d54:	f47f af3e 	bne.w	8001bd4 <find_volume+0xbc>
 8001d58:	2804      	cmp	r0, #4
 8001d5a:	d105      	bne.n	8001d68 <find_volume+0x250>
 8001d5c:	e715      	b.n	8001b8a <find_volume+0x72>
 8001d5e:	2804      	cmp	r0, #4
 8001d60:	f43f af13 	beq.w	8001b8a <find_volume+0x72>
 8001d64:	2801      	cmp	r0, #1
 8001d66:	d901      	bls.n	8001d6c <find_volume+0x254>
 8001d68:	250d      	movs	r5, #13
 8001d6a:	e6f6      	b.n	8001b5a <find_volume+0x42>
 8001d6c:	462f      	mov	r7, r5
 8001d6e:	e73d      	b.n	8001bec <find_volume+0xd4>
 8001d70:	2603      	movs	r6, #3
 8001d72:	e78c      	b.n	8001c8e <find_volume+0x176>
 8001d74:	f1b8 0f00 	cmp.w	r8, #0
 8001d78:	d0f6      	beq.n	8001d68 <find_volume+0x250>
 8001d7a:	2e02      	cmp	r6, #2
 8001d7c:	ea4f 0243 	mov.w	r2, r3, lsl #1
 8001d80:	bf18      	it	ne
 8001d82:	18d2      	addne	r2, r2, r3
 8001d84:	4470      	add	r0, lr
 8001d86:	bf18      	it	ne
 8001d88:	f003 0301 	andne.w	r3, r3, #1
 8001d8c:	62e0      	str	r0, [r4, #44]	; 0x2c
 8001d8e:	bf0c      	ite	eq
 8001d90:	4613      	moveq	r3, r2
 8001d92:	eb03 0352 	addne.w	r3, r3, r2, lsr #1
 8001d96:	e78f      	b.n	8001cb8 <find_volume+0x1a0>
 8001d98:	250b      	movs	r5, #11
 8001d9a:	e6de      	b.n	8001b5a <find_volume+0x42>
 8001d9c:	250c      	movs	r5, #12
 8001d9e:	e6dc      	b.n	8001b5a <find_volume+0x42>
 8001da0:	2503      	movs	r5, #3
 8001da2:	e6da      	b.n	8001b5a <find_volume+0x42>
 8001da4:	2000006c 	.word	0x2000006c
 8001da8:	41615252 	.word	0x41615252
 8001dac:	20000090 	.word	0x20000090
 8001db0:	20000092 	.word	0x20000092

08001db4 <put_fat>:
 8001db4:	2901      	cmp	r1, #1
 8001db6:	e92d 47f0 	stmdb	sp!, {r4, r5, r6, r7, r8, r9, sl, lr}
 8001dba:	4605      	mov	r5, r0
 8001dbc:	460c      	mov	r4, r1
 8001dbe:	4617      	mov	r7, r2
 8001dc0:	f240 808b 	bls.w	8001eda <put_fat+0x126>
 8001dc4:	69c3      	ldr	r3, [r0, #28]
 8001dc6:	428b      	cmp	r3, r1
 8001dc8:	f240 8087 	bls.w	8001eda <put_fat+0x126>
 8001dcc:	7803      	ldrb	r3, [r0, #0]
 8001dce:	2b02      	cmp	r3, #2
 8001dd0:	d049      	beq.n	8001e66 <put_fat+0xb2>
 8001dd2:	2b03      	cmp	r3, #3
 8001dd4:	d060      	beq.n	8001e98 <put_fat+0xe4>
 8001dd6:	2b01      	cmp	r3, #1
 8001dd8:	d17f      	bne.n	8001eda <put_fat+0x126>
 8001dda:	eb01 0851 	add.w	r8, r1, r1, lsr #1
 8001dde:	6a81      	ldr	r1, [r0, #40]	; 0x28
 8001de0:	8983      	ldrh	r3, [r0, #12]
 8001de2:	fbb8 f3f3 	udiv	r3, r8, r3
 8001de6:	4419      	add	r1, r3
 8001de8:	f7ff fe3e 	bl	8001a68 <move_window>
 8001dec:	4606      	mov	r6, r0
 8001dee:	bb78      	cbnz	r0, 8001e50 <put_fat+0x9c>
 8001df0:	89ab      	ldrh	r3, [r5, #12]
 8001df2:	fbb8 f2f3 	udiv	r2, r8, r3
 8001df6:	f105 0a38 	add.w	sl, r5, #56	; 0x38
 8001dfa:	f108 0901 	add.w	r9, r8, #1
 8001dfe:	fb03 8812 	mls	r8, r3, r2, r8
 8001e02:	f014 0401 	ands.w	r4, r4, #1
 8001e06:	bf1f      	itttt	ne
 8001e08:	f81a 3008 	ldrbne.w	r3, [sl, r8]
 8001e0c:	f003 020f 	andne.w	r2, r3, #15
 8001e10:	013b      	lslne	r3, r7, #4
 8001e12:	f003 03f0 	andne.w	r3, r3, #240	; 0xf0
 8001e16:	bf14      	ite	ne
 8001e18:	4313      	orrne	r3, r2
 8001e1a:	b2fb      	uxtbeq	r3, r7
 8001e1c:	f80a 3008 	strb.w	r3, [sl, r8]
 8001e20:	6aa9      	ldr	r1, [r5, #40]	; 0x28
 8001e22:	2301      	movs	r3, #1
 8001e24:	70eb      	strb	r3, [r5, #3]
 8001e26:	4628      	mov	r0, r5
 8001e28:	89ab      	ldrh	r3, [r5, #12]
 8001e2a:	fbb9 f3f3 	udiv	r3, r9, r3
 8001e2e:	4419      	add	r1, r3
 8001e30:	f7ff fe1a 	bl	8001a68 <move_window>
 8001e34:	4606      	mov	r6, r0
 8001e36:	b958      	cbnz	r0, 8001e50 <put_fat+0x9c>
 8001e38:	89ab      	ldrh	r3, [r5, #12]
 8001e3a:	fbb9 f2f3 	udiv	r2, r9, r3
 8001e3e:	fb03 9912 	mls	r9, r3, r2, r9
 8001e42:	b144      	cbz	r4, 8001e56 <put_fat+0xa2>
 8001e44:	f3c7 1707 	ubfx	r7, r7, #4, #8
 8001e48:	f80a 7009 	strb.w	r7, [sl, r9]
 8001e4c:	2301      	movs	r3, #1
 8001e4e:	70eb      	strb	r3, [r5, #3]
 8001e50:	4630      	mov	r0, r6
 8001e52:	e8bd 87f0 	ldmia.w	sp!, {r4, r5, r6, r7, r8, r9, sl, pc}
 8001e56:	f81a 3009 	ldrb.w	r3, [sl, r9]
 8001e5a:	f3c7 2703 	ubfx	r7, r7, #8, #4
 8001e5e:	f023 030f 	bic.w	r3, r3, #15
 8001e62:	431f      	orrs	r7, r3
 8001e64:	e7f0      	b.n	8001e48 <put_fat+0x94>
 8001e66:	8983      	ldrh	r3, [r0, #12]
 8001e68:	085b      	lsrs	r3, r3, #1
 8001e6a:	fbb1 f3f3 	udiv	r3, r1, r3
 8001e6e:	6a81      	ldr	r1, [r0, #40]	; 0x28
 8001e70:	4419      	add	r1, r3
 8001e72:	f7ff fdf9 	bl	8001a68 <move_window>
 8001e76:	4606      	mov	r6, r0
 8001e78:	2800      	cmp	r0, #0
 8001e7a:	d1e9      	bne.n	8001e50 <put_fat+0x9c>
 8001e7c:	89a9      	ldrh	r1, [r5, #12]
 8001e7e:	0064      	lsls	r4, r4, #1
 8001e80:	f105 0338 	add.w	r3, r5, #56	; 0x38
 8001e84:	fbb4 f2f1 	udiv	r2, r4, r1
 8001e88:	fb01 4412 	mls	r4, r1, r2, r4
 8001e8c:	1918      	adds	r0, r3, r4
 8001e8e:	551f      	strb	r7, [r3, r4]
 8001e90:	f3c7 2707 	ubfx	r7, r7, #8, #8
 8001e94:	7047      	strb	r7, [r0, #1]
 8001e96:	e7d9      	b.n	8001e4c <put_fat+0x98>
 8001e98:	8983      	ldrh	r3, [r0, #12]
 8001e9a:	089b      	lsrs	r3, r3, #2
 8001e9c:	fbb1 f3f3 	udiv	r3, r1, r3
 8001ea0:	6a81      	ldr	r1, [r0, #40]	; 0x28
 8001ea2:	4419      	add	r1, r3
 8001ea4:	f7ff fde0 	bl	8001a68 <move_window>
 8001ea8:	4606      	mov	r6, r0
 8001eaa:	2800      	cmp	r0, #0
 8001eac:	d1d0      	bne.n	8001e50 <put_fat+0x9c>
 8001eae:	89a9      	ldrh	r1, [r5, #12]
 8001eb0:	00a4      	lsls	r4, r4, #2
 8001eb2:	f105 0338 	add.w	r3, r5, #56	; 0x38
 8001eb6:	fbb4 f2f1 	udiv	r2, r4, r1
 8001eba:	fb01 4412 	mls	r4, r1, r2, r4
 8001ebe:	441c      	add	r4, r3
 8001ec0:	4620      	mov	r0, r4
 8001ec2:	f7ff fd4d 	bl	8001960 <ld_dword>
 8001ec6:	f027 4770 	bic.w	r7, r7, #4026531840	; 0xf0000000
 8001eca:	f000 4070 	and.w	r0, r0, #4026531840	; 0xf0000000
 8001ece:	ea47 0100 	orr.w	r1, r7, r0
 8001ed2:	4620      	mov	r0, r4
 8001ed4:	f7ff fd46 	bl	8001964 <st_dword>
 8001ed8:	e7b8      	b.n	8001e4c <put_fat+0x98>
 8001eda:	2602      	movs	r6, #2
 8001edc:	e7b8      	b.n	8001e50 <put_fat+0x9c>

08001ede <ld_clust.isra.0>:
 8001ede:	2803      	cmp	r0, #3
 8001ee0:	8b4b      	ldrh	r3, [r1, #26]
 8001ee2:	bf04      	itt	eq
 8001ee4:	8a8a      	ldrheq	r2, [r1, #20]
 8001ee6:	ea43 4302 	orreq.w	r3, r3, r2, lsl #16
 8001eea:	4618      	mov	r0, r3
 8001eec:	4770      	bx	lr

08001eee <get_fat.isra.0>:
 8001eee:	2901      	cmp	r1, #1
 8001ef0:	b5f8      	push	{r3, r4, r5, r6, r7, lr}
 8001ef2:	4607      	mov	r7, r0
 8001ef4:	460c      	mov	r4, r1
 8001ef6:	d963      	bls.n	8001fc0 <get_fat.isra.0+0xd2>
 8001ef8:	69c3      	ldr	r3, [r0, #28]
 8001efa:	4299      	cmp	r1, r3
 8001efc:	d260      	bcs.n	8001fc0 <get_fat.isra.0+0xd2>
 8001efe:	7803      	ldrb	r3, [r0, #0]
 8001f00:	2b02      	cmp	r3, #2
 8001f02:	d032      	beq.n	8001f6a <get_fat.isra.0+0x7c>
 8001f04:	2b03      	cmp	r3, #3
 8001f06:	d043      	beq.n	8001f90 <get_fat.isra.0+0xa2>
 8001f08:	2b01      	cmp	r3, #1
 8001f0a:	d159      	bne.n	8001fc0 <get_fat.isra.0+0xd2>
 8001f0c:	eb01 0551 	add.w	r5, r1, r1, lsr #1
 8001f10:	6a81      	ldr	r1, [r0, #40]	; 0x28
 8001f12:	8983      	ldrh	r3, [r0, #12]
 8001f14:	fbb5 f3f3 	udiv	r3, r5, r3
 8001f18:	4419      	add	r1, r3
 8001f1a:	f7ff fda5 	bl	8001a68 <move_window>
 8001f1e:	b110      	cbz	r0, 8001f26 <get_fat.isra.0+0x38>
 8001f20:	f04f 30ff 	mov.w	r0, #4294967295	; 0xffffffff
 8001f24:	bdf8      	pop	{r3, r4, r5, r6, r7, pc}
 8001f26:	89b9      	ldrh	r1, [r7, #12]
 8001f28:	fbb5 f3f1 	udiv	r3, r5, r1
 8001f2c:	1c6e      	adds	r6, r5, #1
 8001f2e:	fb01 5513 	mls	r5, r1, r3, r5
 8001f32:	6abb      	ldr	r3, [r7, #40]	; 0x28
 8001f34:	fbb6 f1f1 	udiv	r1, r6, r1
 8001f38:	443d      	add	r5, r7
 8001f3a:	4419      	add	r1, r3
 8001f3c:	4638      	mov	r0, r7
 8001f3e:	f895 5038 	ldrb.w	r5, [r5, #56]	; 0x38
 8001f42:	f7ff fd91 	bl	8001a68 <move_window>
 8001f46:	2800      	cmp	r0, #0
 8001f48:	d1ea      	bne.n	8001f20 <get_fat.isra.0+0x32>
 8001f4a:	89b8      	ldrh	r0, [r7, #12]
 8001f4c:	fbb6 f3f0 	udiv	r3, r6, r0
 8001f50:	fb00 6613 	mls	r6, r0, r3, r6
 8001f54:	19b8      	adds	r0, r7, r6
 8001f56:	07e3      	lsls	r3, r4, #31
 8001f58:	f890 0038 	ldrb.w	r0, [r0, #56]	; 0x38
 8001f5c:	ea45 2000 	orr.w	r0, r5, r0, lsl #8
 8001f60:	bf4c      	ite	mi
 8001f62:	0900      	lsrmi	r0, r0, #4
 8001f64:	f3c0 000b 	ubfxpl	r0, r0, #0, #12
 8001f68:	e7dc      	b.n	8001f24 <get_fat.isra.0+0x36>
 8001f6a:	8983      	ldrh	r3, [r0, #12]
 8001f6c:	085b      	lsrs	r3, r3, #1
 8001f6e:	fbb1 f3f3 	udiv	r3, r1, r3
 8001f72:	6a81      	ldr	r1, [r0, #40]	; 0x28
 8001f74:	4419      	add	r1, r3
 8001f76:	f7ff fd77 	bl	8001a68 <move_window>
 8001f7a:	2800      	cmp	r0, #0
 8001f7c:	d1d0      	bne.n	8001f20 <get_fat.isra.0+0x32>
 8001f7e:	89b8      	ldrh	r0, [r7, #12]
 8001f80:	0064      	lsls	r4, r4, #1
 8001f82:	fbb4 f1f0 	udiv	r1, r4, r0
 8001f86:	fb00 4411 	mls	r4, r0, r1, r4
 8001f8a:	1938      	adds	r0, r7, r4
 8001f8c:	8f00      	ldrh	r0, [r0, #56]	; 0x38
 8001f8e:	e7c9      	b.n	8001f24 <get_fat.isra.0+0x36>
 8001f90:	8983      	ldrh	r3, [r0, #12]
 8001f92:	089b      	lsrs	r3, r3, #2
 8001f94:	fbb1 f3f3 	udiv	r3, r1, r3
 8001f98:	6a81      	ldr	r1, [r0, #40]	; 0x28
 8001f9a:	4419      	add	r1, r3
 8001f9c:	f7ff fd64 	bl	8001a68 <move_window>
 8001fa0:	2800      	cmp	r0, #0
 8001fa2:	d1bd      	bne.n	8001f20 <get_fat.isra.0+0x32>
 8001fa4:	89b9      	ldrh	r1, [r7, #12]
 8001fa6:	00a4      	lsls	r4, r4, #2
 8001fa8:	f107 0038 	add.w	r0, r7, #56	; 0x38
 8001fac:	fbb4 f3f1 	udiv	r3, r4, r1
 8001fb0:	fb01 4413 	mls	r4, r1, r3, r4
 8001fb4:	4420      	add	r0, r4
 8001fb6:	f7ff fcd3 	bl	8001960 <ld_dword>
 8001fba:	f020 4070 	bic.w	r0, r0, #4026531840	; 0xf0000000
 8001fbe:	e7b1      	b.n	8001f24 <get_fat.isra.0+0x36>
 8001fc0:	2001      	movs	r0, #1
 8001fc2:	e7af      	b.n	8001f24 <get_fat.isra.0+0x36>

08001fc4 <create_chain>:
 8001fc4:	e92d 41f0 	stmdb	sp!, {r4, r5, r6, r7, r8, lr}
 8001fc8:	6805      	ldr	r5, [r0, #0]
 8001fca:	4680      	mov	r8, r0
 8001fcc:	460f      	mov	r7, r1
 8001fce:	b971      	cbnz	r1, 8001fee <create_chain+0x2a>
 8001fd0:	696e      	ldr	r6, [r5, #20]
 8001fd2:	b1ee      	cbz	r6, 8002010 <create_chain+0x4c>
 8001fd4:	69eb      	ldr	r3, [r5, #28]
 8001fd6:	42b3      	cmp	r3, r6
 8001fd8:	bf98      	it	ls
 8001fda:	2601      	movls	r6, #1
 8001fdc:	4634      	mov	r4, r6
 8001fde:	69eb      	ldr	r3, [r5, #28]
 8001fe0:	3401      	adds	r4, #1
 8001fe2:	42a3      	cmp	r3, r4
 8001fe4:	d817      	bhi.n	8002016 <create_chain+0x52>
 8001fe6:	2e01      	cmp	r6, #1
 8001fe8:	d814      	bhi.n	8002014 <create_chain+0x50>
 8001fea:	2400      	movs	r4, #0
 8001fec:	e006      	b.n	8001ffc <create_chain+0x38>
 8001fee:	4628      	mov	r0, r5
 8001ff0:	f7ff ff7d 	bl	8001eee <get_fat.isra.0>
 8001ff4:	2801      	cmp	r0, #1
 8001ff6:	4604      	mov	r4, r0
 8001ff8:	d803      	bhi.n	8002002 <create_chain+0x3e>
 8001ffa:	2401      	movs	r4, #1
 8001ffc:	4620      	mov	r0, r4
 8001ffe:	e8bd 81f0 	ldmia.w	sp!, {r4, r5, r6, r7, r8, pc}
 8002002:	1c43      	adds	r3, r0, #1
 8002004:	d030      	beq.n	8002068 <create_chain+0xa4>
 8002006:	69eb      	ldr	r3, [r5, #28]
 8002008:	4283      	cmp	r3, r0
 800200a:	d8f7      	bhi.n	8001ffc <create_chain+0x38>
 800200c:	463e      	mov	r6, r7
 800200e:	e7e5      	b.n	8001fdc <create_chain+0x18>
 8002010:	2601      	movs	r6, #1
 8002012:	e7e3      	b.n	8001fdc <create_chain+0x18>
 8002014:	2402      	movs	r4, #2
 8002016:	f8d8 0000 	ldr.w	r0, [r8]
 800201a:	4621      	mov	r1, r4
 800201c:	f7ff ff67 	bl	8001eee <get_fat.isra.0>
 8002020:	b130      	cbz	r0, 8002030 <create_chain+0x6c>
 8002022:	2801      	cmp	r0, #1
 8002024:	d0e9      	beq.n	8001ffa <create_chain+0x36>
 8002026:	3001      	adds	r0, #1
 8002028:	d01e      	beq.n	8002068 <create_chain+0xa4>
 800202a:	42b4      	cmp	r4, r6
 800202c:	d1d7      	bne.n	8001fde <create_chain+0x1a>
 800202e:	e7dc      	b.n	8001fea <create_chain+0x26>
 8002030:	f04f 32ff 	mov.w	r2, #4294967295	; 0xffffffff
 8002034:	4621      	mov	r1, r4
 8002036:	4628      	mov	r0, r5
 8002038:	f7ff febc 	bl	8001db4 <put_fat>
 800203c:	b990      	cbnz	r0, 8002064 <create_chain+0xa0>
 800203e:	b957      	cbnz	r7, 8002056 <create_chain+0x92>
 8002040:	e9d5 3206 	ldrd	r3, r2, [r5, #24]
 8002044:	3a02      	subs	r2, #2
 8002046:	4293      	cmp	r3, r2
 8002048:	616c      	str	r4, [r5, #20]
 800204a:	d910      	bls.n	800206e <create_chain+0xaa>
 800204c:	792b      	ldrb	r3, [r5, #4]
 800204e:	f043 0301 	orr.w	r3, r3, #1
 8002052:	712b      	strb	r3, [r5, #4]
 8002054:	e7d2      	b.n	8001ffc <create_chain+0x38>
 8002056:	4622      	mov	r2, r4
 8002058:	4639      	mov	r1, r7
 800205a:	4628      	mov	r0, r5
 800205c:	f7ff feaa 	bl	8001db4 <put_fat>
 8002060:	2800      	cmp	r0, #0
 8002062:	d0ed      	beq.n	8002040 <create_chain+0x7c>
 8002064:	2801      	cmp	r0, #1
 8002066:	d1c8      	bne.n	8001ffa <create_chain+0x36>
 8002068:	f04f 34ff 	mov.w	r4, #4294967295	; 0xffffffff
 800206c:	e7c6      	b.n	8001ffc <create_chain+0x38>
 800206e:	3b01      	subs	r3, #1
 8002070:	61ab      	str	r3, [r5, #24]
 8002072:	e7eb      	b.n	800204c <create_chain+0x88>

08002074 <dir_sdi>:
 8002074:	f5b1 1f00 	cmp.w	r1, #2097152	; 0x200000
 8002078:	b5f8      	push	{r3, r4, r5, r6, r7, lr}
 800207a:	4606      	mov	r6, r0
 800207c:	460d      	mov	r5, r1
 800207e:	d301      	bcc.n	8002084 <dir_sdi+0x10>
 8002080:	2002      	movs	r0, #2
 8002082:	bdf8      	pop	{r3, r4, r5, r6, r7, pc}
 8002084:	06ca      	lsls	r2, r1, #27
 8002086:	d1fb      	bne.n	8002080 <dir_sdi+0xc>
 8002088:	6882      	ldr	r2, [r0, #8]
 800208a:	6804      	ldr	r4, [r0, #0]
 800208c:	6141      	str	r1, [r0, #20]
 800208e:	b9da      	cbnz	r2, 80020c8 <dir_sdi+0x54>
 8002090:	7823      	ldrb	r3, [r4, #0]
 8002092:	2b02      	cmp	r3, #2
 8002094:	d901      	bls.n	800209a <dir_sdi+0x26>
 8002096:	6ae3      	ldr	r3, [r4, #44]	; 0x2c
 8002098:	b9ab      	cbnz	r3, 80020c6 <dir_sdi+0x52>
 800209a:	8923      	ldrh	r3, [r4, #8]
 800209c:	ebb3 1f55 	cmp.w	r3, r5, lsr #5
 80020a0:	d9ee      	bls.n	8002080 <dir_sdi+0xc>
 80020a2:	6ae3      	ldr	r3, [r4, #44]	; 0x2c
 80020a4:	61f3      	str	r3, [r6, #28]
 80020a6:	69f3      	ldr	r3, [r6, #28]
 80020a8:	61b2      	str	r2, [r6, #24]
 80020aa:	2b00      	cmp	r3, #0
 80020ac:	d0e8      	beq.n	8002080 <dir_sdi+0xc>
 80020ae:	89a2      	ldrh	r2, [r4, #12]
 80020b0:	fbb5 f1f2 	udiv	r1, r5, r2
 80020b4:	3438      	adds	r4, #56	; 0x38
 80020b6:	fb02 5511 	mls	r5, r2, r1, r5
 80020ba:	440b      	add	r3, r1
 80020bc:	442c      	add	r4, r5
 80020be:	61f3      	str	r3, [r6, #28]
 80020c0:	6234      	str	r4, [r6, #32]
 80020c2:	2000      	movs	r0, #0
 80020c4:	e7dd      	b.n	8002082 <dir_sdi+0xe>
 80020c6:	461a      	mov	r2, r3
 80020c8:	8967      	ldrh	r7, [r4, #10]
 80020ca:	89a3      	ldrh	r3, [r4, #12]
 80020cc:	435f      	muls	r7, r3
 80020ce:	42bd      	cmp	r5, r7
 80020d0:	4611      	mov	r1, r2
 80020d2:	d204      	bcs.n	80020de <dir_sdi+0x6a>
 80020d4:	4620      	mov	r0, r4
 80020d6:	f7ff fc5b 	bl	8001990 <clust2sect>
 80020da:	61f0      	str	r0, [r6, #28]
 80020dc:	e7e3      	b.n	80020a6 <dir_sdi+0x32>
 80020de:	6830      	ldr	r0, [r6, #0]
 80020e0:	f7ff ff05 	bl	8001eee <get_fat.isra.0>
 80020e4:	1c43      	adds	r3, r0, #1
 80020e6:	4602      	mov	r2, r0
 80020e8:	d006      	beq.n	80020f8 <dir_sdi+0x84>
 80020ea:	2801      	cmp	r0, #1
 80020ec:	d9c8      	bls.n	8002080 <dir_sdi+0xc>
 80020ee:	69e3      	ldr	r3, [r4, #28]
 80020f0:	4283      	cmp	r3, r0
 80020f2:	d9c5      	bls.n	8002080 <dir_sdi+0xc>
 80020f4:	1bed      	subs	r5, r5, r7
 80020f6:	e7ea      	b.n	80020ce <dir_sdi+0x5a>
 80020f8:	2001      	movs	r0, #1
 80020fa:	e7c2      	b.n	8002082 <dir_sdi+0xe>

080020fc <dir_next>:
 80020fc:	e92d 43f8 	stmdb	sp!, {r3, r4, r5, r6, r7, r8, r9, lr}
 8002100:	6947      	ldr	r7, [r0, #20]
 8002102:	69c3      	ldr	r3, [r0, #28]
 8002104:	4605      	mov	r5, r0
 8002106:	4689      	mov	r9, r1
 8002108:	3720      	adds	r7, #32
 800210a:	b1a3      	cbz	r3, 8002136 <dir_next+0x3a>
 800210c:	f5b7 1f00 	cmp.w	r7, #2097152	; 0x200000
 8002110:	d211      	bcs.n	8002136 <dir_next+0x3a>
 8002112:	6804      	ldr	r4, [r0, #0]
 8002114:	89a2      	ldrh	r2, [r4, #12]
 8002116:	fbb7 f0f2 	udiv	r0, r7, r2
 800211a:	fb02 7210 	mls	r2, r2, r0, r7
 800211e:	2a00      	cmp	r2, #0
 8002120:	d14c      	bne.n	80021bc <dir_next+0xc0>
 8002122:	69a9      	ldr	r1, [r5, #24]
 8002124:	3301      	adds	r3, #1
 8002126:	61eb      	str	r3, [r5, #28]
 8002128:	b939      	cbnz	r1, 800213a <dir_next+0x3e>
 800212a:	8923      	ldrh	r3, [r4, #8]
 800212c:	ebb3 1f57 	cmp.w	r3, r7, lsr #5
 8002130:	d844      	bhi.n	80021bc <dir_next+0xc0>
 8002132:	2300      	movs	r3, #0
 8002134:	61eb      	str	r3, [r5, #28]
 8002136:	2004      	movs	r0, #4
 8002138:	e00d      	b.n	8002156 <dir_next+0x5a>
 800213a:	f8b4 800a 	ldrh.w	r8, [r4, #10]
 800213e:	f108 38ff 	add.w	r8, r8, #4294967295	; 0xffffffff
 8002142:	ea18 0800 	ands.w	r8, r8, r0
 8002146:	d139      	bne.n	80021bc <dir_next+0xc0>
 8002148:	4620      	mov	r0, r4
 800214a:	f7ff fed0 	bl	8001eee <get_fat.isra.0>
 800214e:	2801      	cmp	r0, #1
 8002150:	4606      	mov	r6, r0
 8002152:	d802      	bhi.n	800215a <dir_next+0x5e>
 8002154:	2002      	movs	r0, #2
 8002156:	e8bd 83f8 	ldmia.w	sp!, {r3, r4, r5, r6, r7, r8, r9, pc}
 800215a:	1c42      	adds	r2, r0, #1
 800215c:	d101      	bne.n	8002162 <dir_next+0x66>
 800215e:	2001      	movs	r0, #1
 8002160:	e7f9      	b.n	8002156 <dir_next+0x5a>
 8002162:	69e3      	ldr	r3, [r4, #28]
 8002164:	4283      	cmp	r3, r0
 8002166:	d823      	bhi.n	80021b0 <dir_next+0xb4>
 8002168:	f1b9 0f00 	cmp.w	r9, #0
 800216c:	d0e1      	beq.n	8002132 <dir_next+0x36>
 800216e:	69a9      	ldr	r1, [r5, #24]
 8002170:	4628      	mov	r0, r5
 8002172:	f7ff ff27 	bl	8001fc4 <create_chain>
 8002176:	4606      	mov	r6, r0
 8002178:	2800      	cmp	r0, #0
 800217a:	d03e      	beq.n	80021fa <dir_next+0xfe>
 800217c:	2801      	cmp	r0, #1
 800217e:	d0e9      	beq.n	8002154 <dir_next+0x58>
 8002180:	1c43      	adds	r3, r0, #1
 8002182:	d0ec      	beq.n	800215e <dir_next+0x62>
 8002184:	78e3      	ldrb	r3, [r4, #3]
 8002186:	bb2b      	cbnz	r3, 80021d4 <dir_next+0xd8>
 8002188:	2100      	movs	r1, #0
 800218a:	89a2      	ldrh	r2, [r4, #12]
 800218c:	f104 0038 	add.w	r0, r4, #56	; 0x38
 8002190:	f000 ff48 	bl	8003024 <memset>
 8002194:	4631      	mov	r1, r6
 8002196:	4620      	mov	r0, r4
 8002198:	f7ff fbfa 	bl	8001990 <clust2sect>
 800219c:	f04f 0901 	mov.w	r9, #1
 80021a0:	6360      	str	r0, [r4, #52]	; 0x34
 80021a2:	8963      	ldrh	r3, [r4, #10]
 80021a4:	4598      	cmp	r8, r3
 80021a6:	d31b      	bcc.n	80021e0 <dir_next+0xe4>
 80021a8:	6b63      	ldr	r3, [r4, #52]	; 0x34
 80021aa:	eba3 0308 	sub.w	r3, r3, r8
 80021ae:	6363      	str	r3, [r4, #52]	; 0x34
 80021b0:	61ae      	str	r6, [r5, #24]
 80021b2:	4631      	mov	r1, r6
 80021b4:	4620      	mov	r0, r4
 80021b6:	f7ff fbeb 	bl	8001990 <clust2sect>
 80021ba:	61e8      	str	r0, [r5, #28]
 80021bc:	89a2      	ldrh	r2, [r4, #12]
 80021be:	616f      	str	r7, [r5, #20]
 80021c0:	f104 0338 	add.w	r3, r4, #56	; 0x38
 80021c4:	fbb7 f1f2 	udiv	r1, r7, r2
 80021c8:	fb02 7711 	mls	r7, r2, r1, r7
 80021cc:	441f      	add	r7, r3
 80021ce:	622f      	str	r7, [r5, #32]
 80021d0:	2000      	movs	r0, #0
 80021d2:	e7c0      	b.n	8002156 <dir_next+0x5a>
 80021d4:	4620      	mov	r0, r4
 80021d6:	f7ff fc21 	bl	8001a1c <sync_window.part.0>
 80021da:	2800      	cmp	r0, #0
 80021dc:	d1bf      	bne.n	800215e <dir_next+0x62>
 80021de:	e7d3      	b.n	8002188 <dir_next+0x8c>
 80021e0:	f884 9003 	strb.w	r9, [r4, #3]
 80021e4:	4620      	mov	r0, r4
 80021e6:	f7ff fc19 	bl	8001a1c <sync_window.part.0>
 80021ea:	2800      	cmp	r0, #0
 80021ec:	d1b7      	bne.n	800215e <dir_next+0x62>
 80021ee:	6b63      	ldr	r3, [r4, #52]	; 0x34
 80021f0:	3301      	adds	r3, #1
 80021f2:	f108 0801 	add.w	r8, r8, #1
 80021f6:	6363      	str	r3, [r4, #52]	; 0x34
 80021f8:	e7d3      	b.n	80021a2 <dir_next+0xa6>
 80021fa:	2007      	movs	r0, #7
 80021fc:	e7ab      	b.n	8002156 <dir_next+0x5a>
	...

08002200 <dir_find>:
 8002200:	e92d 4ff0 	stmdb	sp!, {r4, r5, r6, r7, r8, r9, sl, fp, lr}
 8002204:	2100      	movs	r1, #0
 8002206:	b085      	sub	sp, #20
 8002208:	f8d0 b000 	ldr.w	fp, [r0]
 800220c:	4604      	mov	r4, r0
 800220e:	f7ff ff31 	bl	8002074 <dir_sdi>
 8002212:	2800      	cmp	r0, #0
 8002214:	f040 809c 	bne.w	8002350 <dir_find+0x150>
 8002218:	f04f 3aff 	mov.w	sl, #4294967295	; 0xffffffff
 800221c:	f04f 08ff 	mov.w	r8, #255	; 0xff
 8002220:	f8c4 a030 	str.w	sl, [r4, #48]	; 0x30
 8002224:	4646      	mov	r6, r8
 8002226:	69e1      	ldr	r1, [r4, #28]
 8002228:	4658      	mov	r0, fp
 800222a:	f7ff fc1d 	bl	8001a68 <move_window>
 800222e:	2800      	cmp	r0, #0
 8002230:	f040 808e 	bne.w	8002350 <dir_find+0x150>
 8002234:	6a25      	ldr	r5, [r4, #32]
 8002236:	782f      	ldrb	r7, [r5, #0]
 8002238:	2f00      	cmp	r7, #0
 800223a:	f000 808c 	beq.w	8002356 <dir_find+0x156>
 800223e:	7aea      	ldrb	r2, [r5, #11]
 8002240:	2fe5      	cmp	r7, #229	; 0xe5
 8002242:	f002 033f 	and.w	r3, r2, #63	; 0x3f
 8002246:	71a3      	strb	r3, [r4, #6]
 8002248:	d003      	beq.n	8002252 <dir_find+0x52>
 800224a:	0710      	lsls	r0, r2, #28
 800224c:	d504      	bpl.n	8002258 <dir_find+0x58>
 800224e:	2b0f      	cmp	r3, #15
 8002250:	d004      	beq.n	800225c <dir_find+0x5c>
 8002252:	f8c4 a030 	str.w	sl, [r4, #48]	; 0x30
 8002256:	e04e      	b.n	80022f6 <dir_find+0xf6>
 8002258:	2b0f      	cmp	r3, #15
 800225a:	d153      	bne.n	8002304 <dir_find+0x104>
 800225c:	f894 302f 	ldrb.w	r3, [r4, #47]	; 0x2f
 8002260:	0659      	lsls	r1, r3, #25
 8002262:	d43f      	bmi.n	80022e4 <dir_find+0xe4>
 8002264:	067a      	lsls	r2, r7, #25
 8002266:	d544      	bpl.n	80022f2 <dir_find+0xf2>
 8002268:	6963      	ldr	r3, [r4, #20]
 800226a:	f895 800d 	ldrb.w	r8, [r5, #13]
 800226e:	6323      	str	r3, [r4, #48]	; 0x30
 8002270:	f007 07bf 	and.w	r7, r7, #191	; 0xbf
 8002274:	7b6b      	ldrb	r3, [r5, #13]
 8002276:	4543      	cmp	r3, r8
 8002278:	d13d      	bne.n	80022f6 <dir_find+0xf6>
 800227a:	8b6b      	ldrh	r3, [r5, #26]
 800227c:	2b00      	cmp	r3, #0
 800227e:	d13a      	bne.n	80022f6 <dir_find+0xf6>
 8002280:	782e      	ldrb	r6, [r5, #0]
 8002282:	f8db 3010 	ldr.w	r3, [fp, #16]
 8002286:	9300      	str	r3, [sp, #0]
 8002288:	f006 063f 	and.w	r6, r6, #63	; 0x3f
 800228c:	3e01      	subs	r6, #1
 800228e:	230d      	movs	r3, #13
 8002290:	f8df 90d0 	ldr.w	r9, [pc, #208]	; 8002364 <dir_find+0x164>
 8002294:	435e      	muls	r6, r3
 8002296:	2201      	movs	r2, #1
 8002298:	f819 3b01 	ldrb.w	r3, [r9], #1
 800229c:	5aeb      	ldrh	r3, [r5, r3]
 800229e:	b362      	cbz	r2, 80022fa <dir_find+0xfa>
 80022a0:	2efe      	cmp	r6, #254	; 0xfe
 80022a2:	d828      	bhi.n	80022f6 <dir_find+0xf6>
 80022a4:	4618      	mov	r0, r3
 80022a6:	9303      	str	r3, [sp, #12]
 80022a8:	f000 fe56 	bl	8002f58 <ff_wtoupper>
 80022ac:	9b00      	ldr	r3, [sp, #0]
 80022ae:	9002      	str	r0, [sp, #8]
 80022b0:	1c71      	adds	r1, r6, #1
 80022b2:	f833 0016 	ldrh.w	r0, [r3, r6, lsl #1]
 80022b6:	9101      	str	r1, [sp, #4]
 80022b8:	f000 fe4e 	bl	8002f58 <ff_wtoupper>
 80022bc:	9a02      	ldr	r2, [sp, #8]
 80022be:	4282      	cmp	r2, r0
 80022c0:	d119      	bne.n	80022f6 <dir_find+0xf6>
 80022c2:	9b03      	ldr	r3, [sp, #12]
 80022c4:	9901      	ldr	r1, [sp, #4]
 80022c6:	461a      	mov	r2, r3
 80022c8:	460e      	mov	r6, r1
 80022ca:	4b25      	ldr	r3, [pc, #148]	; (8002360 <dir_find+0x160>)
 80022cc:	454b      	cmp	r3, r9
 80022ce:	d1e3      	bne.n	8002298 <dir_find+0x98>
 80022d0:	782b      	ldrb	r3, [r5, #0]
 80022d2:	065b      	lsls	r3, r3, #25
 80022d4:	d504      	bpl.n	80022e0 <dir_find+0xe0>
 80022d6:	b11a      	cbz	r2, 80022e0 <dir_find+0xe0>
 80022d8:	9b00      	ldr	r3, [sp, #0]
 80022da:	f833 3016 	ldrh.w	r3, [r3, r6, lsl #1]
 80022de:	b953      	cbnz	r3, 80022f6 <dir_find+0xf6>
 80022e0:	1e7e      	subs	r6, r7, #1
 80022e2:	b2f6      	uxtb	r6, r6
 80022e4:	2100      	movs	r1, #0
 80022e6:	4620      	mov	r0, r4
 80022e8:	f7ff ff08 	bl	80020fc <dir_next>
 80022ec:	2800      	cmp	r0, #0
 80022ee:	d09a      	beq.n	8002226 <dir_find+0x26>
 80022f0:	e02e      	b.n	8002350 <dir_find+0x150>
 80022f2:	42be      	cmp	r6, r7
 80022f4:	d0be      	beq.n	8002274 <dir_find+0x74>
 80022f6:	26ff      	movs	r6, #255	; 0xff
 80022f8:	e7f4      	b.n	80022e4 <dir_find+0xe4>
 80022fa:	f64f 71ff 	movw	r1, #65535	; 0xffff
 80022fe:	428b      	cmp	r3, r1
 8002300:	d0e3      	beq.n	80022ca <dir_find+0xca>
 8002302:	e7f8      	b.n	80022f6 <dir_find+0xf6>
 8002304:	b976      	cbnz	r6, 8002324 <dir_find+0x124>
 8002306:	f105 010b 	add.w	r1, r5, #11
 800230a:	462a      	mov	r2, r5
 800230c:	01f3      	lsls	r3, r6, #7
 800230e:	ea43 0656 	orr.w	r6, r3, r6, lsr #1
 8002312:	f812 3b01 	ldrb.w	r3, [r2], #1
 8002316:	fa53 f686 	uxtab	r6, r3, r6
 800231a:	428a      	cmp	r2, r1
 800231c:	b2f6      	uxtb	r6, r6
 800231e:	d1f5      	bne.n	800230c <dir_find+0x10c>
 8002320:	45b0      	cmp	r8, r6
 8002322:	d01a      	beq.n	800235a <dir_find+0x15a>
 8002324:	f894 002f 	ldrb.w	r0, [r4, #47]	; 0x2f
 8002328:	f010 0001 	ands.w	r0, r0, #1
 800232c:	d191      	bne.n	8002252 <dir_find+0x52>
 800232e:	f104 0224 	add.w	r2, r4, #36	; 0x24
 8002332:	f105 010b 	add.w	r1, r5, #11
 8002336:	f815 3b01 	ldrb.w	r3, [r5], #1
 800233a:	f812 6b01 	ldrb.w	r6, [r2], #1
 800233e:	428d      	cmp	r5, r1
 8002340:	eba3 0306 	sub.w	r3, r3, r6
 8002344:	d002      	beq.n	800234c <dir_find+0x14c>
 8002346:	2b00      	cmp	r3, #0
 8002348:	d0f5      	beq.n	8002336 <dir_find+0x136>
 800234a:	e782      	b.n	8002252 <dir_find+0x52>
 800234c:	2b00      	cmp	r3, #0
 800234e:	d180      	bne.n	8002252 <dir_find+0x52>
 8002350:	b005      	add	sp, #20
 8002352:	e8bd 8ff0 	ldmia.w	sp!, {r4, r5, r6, r7, r8, r9, sl, fp, pc}
 8002356:	2004      	movs	r0, #4
 8002358:	e7fa      	b.n	8002350 <dir_find+0x150>
 800235a:	2000      	movs	r0, #0
 800235c:	e7f8      	b.n	8002350 <dir_find+0x150>
 800235e:	bf00      	nop
 8002360:	0800311d 	.word	0x0800311d
 8002364:	08003110 	.word	0x08003110

08002368 <f_mount>:
 8002368:	b530      	push	{r4, r5, lr}
 800236a:	b085      	sub	sp, #20
 800236c:	e9cd 1000 	strd	r1, r0, [sp]
 8002370:	a803      	add	r0, sp, #12
 8002372:	9103      	str	r1, [sp, #12]
 8002374:	4614      	mov	r4, r2
 8002376:	f7ff fb16 	bl	80019a6 <get_ldnumber>
 800237a:	1e01      	subs	r1, r0, #0
 800237c:	db17      	blt.n	80023ae <f_mount+0x46>
 800237e:	4d0e      	ldr	r5, [pc, #56]	; (80023b8 <f_mount+0x50>)
 8002380:	f855 0021 	ldr.w	r0, [r5, r1, lsl #2]
 8002384:	b118      	cbz	r0, 800238e <f_mount+0x26>
 8002386:	f7ff faf5 	bl	8001974 <clear_lock>
 800238a:	2300      	movs	r3, #0
 800238c:	7003      	strb	r3, [r0, #0]
 800238e:	9801      	ldr	r0, [sp, #4]
 8002390:	b108      	cbz	r0, 8002396 <f_mount+0x2e>
 8002392:	2300      	movs	r3, #0
 8002394:	7003      	strb	r3, [r0, #0]
 8002396:	f845 0021 	str.w	r0, [r5, r1, lsl #2]
 800239a:	b130      	cbz	r0, 80023aa <f_mount+0x42>
 800239c:	2c01      	cmp	r4, #1
 800239e:	d108      	bne.n	80023b2 <f_mount+0x4a>
 80023a0:	2200      	movs	r2, #0
 80023a2:	a901      	add	r1, sp, #4
 80023a4:	4668      	mov	r0, sp
 80023a6:	f7ff fbb7 	bl	8001b18 <find_volume>
 80023aa:	b005      	add	sp, #20
 80023ac:	bd30      	pop	{r4, r5, pc}
 80023ae:	200b      	movs	r0, #11
 80023b0:	e7fb      	b.n	80023aa <f_mount+0x42>
 80023b2:	2000      	movs	r0, #0
 80023b4:	e7f9      	b.n	80023aa <f_mount+0x42>
 80023b6:	bf00      	nop
 80023b8:	2000006c 	.word	0x2000006c

080023bc <f_open>:
 80023bc:	e92d 4ff0 	stmdb	sp!, {r4, r5, r6, r7, r8, r9, sl, fp, lr}
 80023c0:	b09b      	sub	sp, #108	; 0x6c
 80023c2:	4691      	mov	r9, r2
 80023c4:	9105      	str	r1, [sp, #20]
 80023c6:	4605      	mov	r5, r0
 80023c8:	2800      	cmp	r0, #0
 80023ca:	f000 8324 	beq.w	8002a16 <f_open+0x65a>
 80023ce:	f002 0a3f 	and.w	sl, r2, #63	; 0x3f
 80023d2:	4652      	mov	r2, sl
 80023d4:	a907      	add	r1, sp, #28
 80023d6:	a805      	add	r0, sp, #20
 80023d8:	f7ff fb9e 	bl	8001b18 <find_volume>
 80023dc:	9001      	str	r0, [sp, #4]
 80023de:	2800      	cmp	r0, #0
 80023e0:	f040 8311 	bne.w	8002a06 <f_open+0x64a>
 80023e4:	9b07      	ldr	r3, [sp, #28]
 80023e6:	9302      	str	r3, [sp, #8]
 80023e8:	930d      	str	r3, [sp, #52]	; 0x34
 80023ea:	9b05      	ldr	r3, [sp, #20]
 80023ec:	9300      	str	r3, [sp, #0]
 80023ee:	f813 2b01 	ldrb.w	r2, [r3], #1
 80023f2:	2a2f      	cmp	r2, #47	; 0x2f
 80023f4:	d0fa      	beq.n	80023ec <f_open+0x30>
 80023f6:	2a5c      	cmp	r2, #92	; 0x5c
 80023f8:	d0f8      	beq.n	80023ec <f_open+0x30>
 80023fa:	9b00      	ldr	r3, [sp, #0]
 80023fc:	2100      	movs	r1, #0
 80023fe:	910f      	str	r1, [sp, #60]	; 0x3c
 8002400:	781b      	ldrb	r3, [r3, #0]
 8002402:	2b1f      	cmp	r3, #31
 8002404:	f200 80d6 	bhi.w	80025b4 <f_open+0x1f8>
 8002408:	2380      	movs	r3, #128	; 0x80
 800240a:	a80d      	add	r0, sp, #52	; 0x34
 800240c:	f88d 3063 	strb.w	r3, [sp, #99]	; 0x63
 8002410:	f7ff fe30 	bl	8002074 <dir_sdi>
 8002414:	2800      	cmp	r0, #0
 8002416:	f000 8125 	beq.w	8002664 <f_open+0x2a8>
 800241a:	f019 0f1c 	tst.w	r9, #28
 800241e:	f000 8260 	beq.w	80028e2 <f_open+0x526>
 8002422:	2800      	cmp	r0, #0
 8002424:	f000 81ec 	beq.w	8002800 <f_open+0x444>
 8002428:	2804      	cmp	r0, #4
 800242a:	d10d      	bne.n	8002448 <f_open+0x8c>
 800242c:	4baa      	ldr	r3, [pc, #680]	; (80026d8 <f_open+0x31c>)
 800242e:	681a      	ldr	r2, [r3, #0]
 8002430:	b11a      	cbz	r2, 800243a <f_open+0x7e>
 8002432:	691b      	ldr	r3, [r3, #16]
 8002434:	2b00      	cmp	r3, #0
 8002436:	f040 82e8 	bne.w	8002a0a <f_open+0x64e>
 800243a:	f89d 4063 	ldrb.w	r4, [sp, #99]	; 0x63
 800243e:	f014 04a0 	ands.w	r4, r4, #160	; 0xa0
 8002442:	f000 8151 	beq.w	80026e8 <f_open+0x32c>
 8002446:	2006      	movs	r0, #6
 8002448:	2300      	movs	r3, #0
 800244a:	602b      	str	r3, [r5, #0]
 800244c:	9001      	str	r0, [sp, #4]
 800244e:	e2b3      	b.n	80029b8 <f_open+0x5fc>
 8002450:	3401      	adds	r4, #1
 8002452:	e0c2      	b.n	80025da <f_open+0x21e>
 8002454:	f5b4 7f80 	cmp.w	r4, #256	; 0x100
 8002458:	d101      	bne.n	800245e <f_open+0xa2>
 800245a:	2006      	movs	r0, #6
 800245c:	e7dd      	b.n	800241a <f_open+0x5e>
 800245e:	2101      	movs	r1, #1
 8002460:	9203      	str	r2, [sp, #12]
 8002462:	f000 fd5b 	bl	8002f1c <ff_convert>
 8002466:	2800      	cmp	r0, #0
 8002468:	d0f7      	beq.n	800245a <f_open+0x9e>
 800246a:	287f      	cmp	r0, #127	; 0x7f
 800246c:	9a03      	ldr	r2, [sp, #12]
 800246e:	d806      	bhi.n	800247e <f_open+0xc2>
 8002470:	499a      	ldr	r1, [pc, #616]	; (80026dc <f_open+0x320>)
 8002472:	f811 3b01 	ldrb.w	r3, [r1], #1
 8002476:	b113      	cbz	r3, 800247e <f_open+0xc2>
 8002478:	4298      	cmp	r0, r3
 800247a:	d1fa      	bne.n	8002472 <f_open+0xb6>
 800247c:	e7ed      	b.n	800245a <f_open+0x9e>
 800247e:	f828 0f02 	strh.w	r0, [r8, #2]!
 8002482:	4627      	mov	r7, r4
 8002484:	e09e      	b.n	80025c4 <f_open+0x208>
 8002486:	f836 3017 	ldrh.w	r3, [r6, r7, lsl #1]
 800248a:	2b20      	cmp	r3, #32
 800248c:	d002      	beq.n	8002494 <f_open+0xd8>
 800248e:	2b2e      	cmp	r3, #46	; 0x2e
 8002490:	f040 80b5 	bne.w	80025fe <f_open+0x242>
 8002494:	3f01      	subs	r7, #1
 8002496:	e0af      	b.n	80025f8 <f_open+0x23c>
 8002498:	3101      	adds	r1, #1
 800249a:	e0bc      	b.n	8002616 <f_open+0x25a>
 800249c:	45c3      	cmp	fp, r8
 800249e:	d205      	bcs.n	80024ac <f_open+0xf0>
 80024a0:	42bb      	cmp	r3, r7
 80024a2:	d149      	bne.n	8002538 <f_open+0x17c>
 80024a4:	f1b8 0f0b 	cmp.w	r8, #11
 80024a8:	d13e      	bne.n	8002528 <f_open+0x16c>
 80024aa:	e002      	b.n	80024b2 <f_open+0xf6>
 80024ac:	f1b8 0f0b 	cmp.w	r8, #11
 80024b0:	d135      	bne.n	800251e <f_open+0x162>
 80024b2:	f044 0403 	orr.w	r4, r4, #3
 80024b6:	f04f 080b 	mov.w	r8, #11
 80024ba:	f89d 3058 	ldrb.w	r3, [sp, #88]	; 0x58
 80024be:	2be5      	cmp	r3, #229	; 0xe5
 80024c0:	bf04      	itt	eq
 80024c2:	2305      	moveq	r3, #5
 80024c4:	f88d 3058 	strbeq.w	r3, [sp, #88]	; 0x58
 80024c8:	f1b8 0f08 	cmp.w	r8, #8
 80024cc:	bf04      	itt	eq
 80024ce:	00b6      	lsleq	r6, r6, #2
 80024d0:	b2f6      	uxtbeq	r6, r6
 80024d2:	f006 030c 	and.w	r3, r6, #12
 80024d6:	2b0c      	cmp	r3, #12
 80024d8:	d003      	beq.n	80024e2 <f_open+0x126>
 80024da:	f006 0203 	and.w	r2, r6, #3
 80024de:	2a03      	cmp	r2, #3
 80024e0:	d101      	bne.n	80024e6 <f_open+0x12a>
 80024e2:	f044 0402 	orr.w	r4, r4, #2
 80024e6:	07a0      	lsls	r0, r4, #30
 80024e8:	d409      	bmi.n	80024fe <f_open+0x142>
 80024ea:	f006 0603 	and.w	r6, r6, #3
 80024ee:	2e01      	cmp	r6, #1
 80024f0:	bf08      	it	eq
 80024f2:	f044 0410 	orreq.w	r4, r4, #16
 80024f6:	2b04      	cmp	r3, #4
 80024f8:	bf08      	it	eq
 80024fa:	f044 0408 	orreq.w	r4, r4, #8
 80024fe:	a80d      	add	r0, sp, #52	; 0x34
 8002500:	f88d 4063 	strb.w	r4, [sp, #99]	; 0x63
 8002504:	f7ff fe7c 	bl	8002200 <dir_find>
 8002508:	f89d 3063 	ldrb.w	r3, [sp, #99]	; 0x63
 800250c:	2800      	cmp	r0, #0
 800250e:	d03b      	beq.n	8002588 <f_open+0x1cc>
 8002510:	2804      	cmp	r0, #4
 8002512:	d182      	bne.n	800241a <f_open+0x5e>
 8002514:	f013 0f04 	tst.w	r3, #4
 8002518:	bf08      	it	eq
 800251a:	2005      	moveq	r0, #5
 800251c:	e77d      	b.n	800241a <f_open+0x5e>
 800251e:	42bb      	cmp	r3, r7
 8002520:	d002      	beq.n	8002528 <f_open+0x16c>
 8002522:	f044 0403 	orr.w	r4, r4, #3
 8002526:	d8c8      	bhi.n	80024ba <f_open+0xfe>
 8002528:	00b6      	lsls	r6, r6, #2
 800252a:	b2f6      	uxtb	r6, r6
 800252c:	463b      	mov	r3, r7
 800252e:	f04f 080b 	mov.w	r8, #11
 8002532:	f04f 0b08 	mov.w	fp, #8
 8002536:	e093      	b.n	8002660 <f_open+0x2a4>
 8002538:	287f      	cmp	r0, #127	; 0x7f
 800253a:	d90e      	bls.n	800255a <f_open+0x19e>
 800253c:	2100      	movs	r1, #0
 800253e:	e9cd 2303 	strd	r2, r3, [sp, #12]
 8002542:	f000 fceb 	bl	8002f1c <ff_convert>
 8002546:	f044 0402 	orr.w	r4, r4, #2
 800254a:	e9dd 2303 	ldrd	r2, r3, [sp, #12]
 800254e:	b168      	cbz	r0, 800256c <f_open+0x1b0>
 8002550:	4963      	ldr	r1, [pc, #396]	; (80026e0 <f_open+0x324>)
 8002552:	4408      	add	r0, r1
 8002554:	f810 0c80 	ldrb.w	r0, [r0, #-128]
 8002558:	b140      	cbz	r0, 800256c <f_open+0x1b0>
 800255a:	f8df c188 	ldr.w	ip, [pc, #392]	; 80026e4 <f_open+0x328>
 800255e:	f81c 1b01 	ldrb.w	r1, [ip], #1
 8002562:	2900      	cmp	r1, #0
 8002564:	f000 8337 	beq.w	8002bd6 <f_open+0x81a>
 8002568:	4281      	cmp	r1, r0
 800256a:	d1f8      	bne.n	800255e <f_open+0x1a2>
 800256c:	f044 0403 	orr.w	r4, r4, #3
 8002570:	205f      	movs	r0, #95	; 0x5f
 8002572:	f10b 0168 	add.w	r1, fp, #104	; 0x68
 8002576:	4469      	add	r1, sp
 8002578:	f10b 0b01 	add.w	fp, fp, #1
 800257c:	f801 0c10 	strb.w	r0, [r1, #-16]
 8002580:	e06e      	b.n	8002660 <f_open+0x2a4>
 8002582:	f046 0602 	orr.w	r6, r6, #2
 8002586:	e7f4      	b.n	8002572 <f_open+0x1b6>
 8002588:	0759      	lsls	r1, r3, #29
 800258a:	d46b      	bmi.n	8002664 <f_open+0x2a8>
 800258c:	f89d 303a 	ldrb.w	r3, [sp, #58]	; 0x3a
 8002590:	06da      	lsls	r2, r3, #27
 8002592:	f140 809e 	bpl.w	80026d2 <f_open+0x316>
 8002596:	9a02      	ldr	r2, [sp, #8]
 8002598:	9912      	ldr	r1, [sp, #72]	; 0x48
 800259a:	8992      	ldrh	r2, [r2, #12]
 800259c:	9b02      	ldr	r3, [sp, #8]
 800259e:	fbb1 f0f2 	udiv	r0, r1, r2
 80025a2:	3338      	adds	r3, #56	; 0x38
 80025a4:	fb02 1110 	mls	r1, r2, r0, r1
 80025a8:	4419      	add	r1, r3
 80025aa:	9b02      	ldr	r3, [sp, #8]
 80025ac:	7818      	ldrb	r0, [r3, #0]
 80025ae:	f7ff fc96 	bl	8001ede <ld_clust.isra.0>
 80025b2:	900f      	str	r0, [sp, #60]	; 0x3c
 80025b4:	9b0d      	ldr	r3, [sp, #52]	; 0x34
 80025b6:	691a      	ldr	r2, [r3, #16]
 80025b8:	9b00      	ldr	r3, [sp, #0]
 80025ba:	1e96      	subs	r6, r2, #2
 80025bc:	f103 3bff 	add.w	fp, r3, #4294967295	; 0xffffffff
 80025c0:	46b0      	mov	r8, r6
 80025c2:	2700      	movs	r7, #0
 80025c4:	f81b 0f01 	ldrb.w	r0, [fp, #1]!
 80025c8:	281f      	cmp	r0, #31
 80025ca:	f107 0401 	add.w	r4, r7, #1
 80025ce:	d90c      	bls.n	80025ea <f_open+0x22e>
 80025d0:	282f      	cmp	r0, #47	; 0x2f
 80025d2:	d002      	beq.n	80025da <f_open+0x21e>
 80025d4:	285c      	cmp	r0, #92	; 0x5c
 80025d6:	f47f af3d 	bne.w	8002454 <f_open+0x98>
 80025da:	9b00      	ldr	r3, [sp, #0]
 80025dc:	5d1b      	ldrb	r3, [r3, r4]
 80025de:	2b2f      	cmp	r3, #47	; 0x2f
 80025e0:	f43f af36 	beq.w	8002450 <f_open+0x94>
 80025e4:	2b5c      	cmp	r3, #92	; 0x5c
 80025e6:	f43f af33 	beq.w	8002450 <f_open+0x94>
 80025ea:	9b00      	ldr	r3, [sp, #0]
 80025ec:	2820      	cmp	r0, #32
 80025ee:	4423      	add	r3, r4
 80025f0:	9300      	str	r3, [sp, #0]
 80025f2:	bf34      	ite	cc
 80025f4:	2404      	movcc	r4, #4
 80025f6:	2400      	movcs	r4, #0
 80025f8:	2f00      	cmp	r7, #0
 80025fa:	f47f af44 	bne.w	8002486 <f_open+0xca>
 80025fe:	2100      	movs	r1, #0
 8002600:	f822 1017 	strh.w	r1, [r2, r7, lsl #1]
 8002604:	2f00      	cmp	r7, #0
 8002606:	f43f af28 	beq.w	800245a <f_open+0x9e>
 800260a:	f04f 3320 	mov.w	r3, #538976288	; 0x20202020
 800260e:	e9cd 3316 	strd	r3, r3, [sp, #88]	; 0x58
 8002612:	f8cd 305f 	str.w	r3, [sp, #95]	; 0x5f
 8002616:	f832 3011 	ldrh.w	r3, [r2, r1, lsl #1]
 800261a:	2b20      	cmp	r3, #32
 800261c:	f43f af3c 	beq.w	8002498 <f_open+0xdc>
 8002620:	2b2e      	cmp	r3, #46	; 0x2e
 8002622:	f43f af39 	beq.w	8002498 <f_open+0xdc>
 8002626:	b109      	cbz	r1, 800262c <f_open+0x270>
 8002628:	f044 0403 	orr.w	r4, r4, #3
 800262c:	f836 3017 	ldrh.w	r3, [r6, r7, lsl #1]
 8002630:	2b2e      	cmp	r3, #46	; 0x2e
 8002632:	d001      	beq.n	8002638 <f_open+0x27c>
 8002634:	3f01      	subs	r7, #1
 8002636:	d1f9      	bne.n	800262c <f_open+0x270>
 8002638:	2600      	movs	r6, #0
 800263a:	f04f 0808 	mov.w	r8, #8
 800263e:	46b3      	mov	fp, r6
 8002640:	f832 0011 	ldrh.w	r0, [r2, r1, lsl #1]
 8002644:	1c4b      	adds	r3, r1, #1
 8002646:	2800      	cmp	r0, #0
 8002648:	f43f af37 	beq.w	80024ba <f_open+0xfe>
 800264c:	2820      	cmp	r0, #32
 800264e:	d005      	beq.n	800265c <f_open+0x2a0>
 8002650:	282e      	cmp	r0, #46	; 0x2e
 8002652:	f47f af23 	bne.w	800249c <f_open+0xe0>
 8002656:	42bb      	cmp	r3, r7
 8002658:	f43f af24 	beq.w	80024a4 <f_open+0xe8>
 800265c:	f044 0403 	orr.w	r4, r4, #3
 8002660:	4619      	mov	r1, r3
 8002662:	e7ed      	b.n	8002640 <f_open+0x284>
 8002664:	f99d 3063 	ldrsb.w	r3, [sp, #99]	; 0x63
 8002668:	2b00      	cmp	r3, #0
 800266a:	f6ff aef6 	blt.w	800245a <f_open+0x9e>
 800266e:	4b1a      	ldr	r3, [pc, #104]	; (80026d8 <f_open+0x31c>)
 8002670:	9f0d      	ldr	r7, [sp, #52]	; 0x34
 8002672:	681a      	ldr	r2, [r3, #0]
 8002674:	9e0f      	ldr	r6, [sp, #60]	; 0x3c
 8002676:	9912      	ldr	r1, [sp, #72]	; 0x48
 8002678:	f02a 0401 	bic.w	r4, sl, #1
 800267c:	b1e2      	cbz	r2, 80026b8 <f_open+0x2fc>
 800267e:	4297      	cmp	r7, r2
 8002680:	d11c      	bne.n	80026bc <f_open+0x300>
 8002682:	685a      	ldr	r2, [r3, #4]
 8002684:	4296      	cmp	r6, r2
 8002686:	d119      	bne.n	80026bc <f_open+0x300>
 8002688:	689a      	ldr	r2, [r3, #8]
 800268a:	4291      	cmp	r1, r2
 800268c:	f04f 0200 	mov.w	r2, #0
 8002690:	f000 829c 	beq.w	8002bcc <f_open+0x810>
 8002694:	6918      	ldr	r0, [r3, #16]
 8002696:	2800      	cmp	r0, #0
 8002698:	f43f aebf 	beq.w	800241a <f_open+0x5e>
 800269c:	42b8      	cmp	r0, r7
 800269e:	d106      	bne.n	80026ae <f_open+0x2f2>
 80026a0:	6958      	ldr	r0, [r3, #20]
 80026a2:	42b0      	cmp	r0, r6
 80026a4:	d103      	bne.n	80026ae <f_open+0x2f2>
 80026a6:	6998      	ldr	r0, [r3, #24]
 80026a8:	4288      	cmp	r0, r1
 80026aa:	f000 828e 	beq.w	8002bca <f_open+0x80e>
 80026ae:	2a00      	cmp	r2, #0
 80026b0:	bf0c      	ite	eq
 80026b2:	2012      	moveq	r0, #18
 80026b4:	2000      	movne	r0, #0
 80026b6:	e6b0      	b.n	800241a <f_open+0x5e>
 80026b8:	2201      	movs	r2, #1
 80026ba:	e7eb      	b.n	8002694 <f_open+0x2d8>
 80026bc:	2200      	movs	r2, #0
 80026be:	e7e9      	b.n	8002694 <f_open+0x2d8>
 80026c0:	eb03 1302 	add.w	r3, r3, r2, lsl #4
 80026c4:	899b      	ldrh	r3, [r3, #12]
 80026c6:	f5b3 7f80 	cmp.w	r3, #256	; 0x100
 80026ca:	bf14      	ite	ne
 80026cc:	2000      	movne	r0, #0
 80026ce:	2010      	moveq	r0, #16
 80026d0:	e6a3      	b.n	800241a <f_open+0x5e>
 80026d2:	2005      	movs	r0, #5
 80026d4:	e6a1      	b.n	800241a <f_open+0x5e>
 80026d6:	bf00      	nop
 80026d8:	20000070 	.word	0x20000070
 80026dc:	08003080 	.word	0x08003080
 80026e0:	08003090 	.word	0x08003090
 80026e4:	08003089 	.word	0x08003089
 80026e8:	9f0d      	ldr	r7, [sp, #52]	; 0x34
 80026ea:	693a      	ldr	r2, [r7, #16]
 80026ec:	f832 3014 	ldrh.w	r3, [r2, r4, lsl #1]
 80026f0:	2b00      	cmp	r3, #0
 80026f2:	d162      	bne.n	80027ba <f_open+0x3fe>
 80026f4:	220c      	movs	r2, #12
 80026f6:	a916      	add	r1, sp, #88	; 0x58
 80026f8:	a80a      	add	r0, sp, #40	; 0x28
 80026fa:	f7ff f986 	bl	8001a0a <mem_cpy.part.0>
 80026fe:	f89d 3033 	ldrb.w	r3, [sp, #51]	; 0x33
 8002702:	07db      	lsls	r3, r3, #31
 8002704:	f140 8191 	bpl.w	8002a2a <f_open+0x66e>
 8002708:	2340      	movs	r3, #64	; 0x40
 800270a:	4ead      	ldr	r6, [pc, #692]	; (80029c0 <f_open+0x604>)
 800270c:	f88d 3063 	strb.w	r3, [sp, #99]	; 0x63
 8002710:	f04f 0801 	mov.w	r8, #1
 8002714:	220b      	movs	r2, #11
 8002716:	a90a      	add	r1, sp, #40	; 0x28
 8002718:	a816      	add	r0, sp, #88	; 0x58
 800271a:	f8d7 9010 	ldr.w	r9, [r7, #16]
 800271e:	f7ff f974 	bl	8001a0a <mem_cpy.part.0>
 8002722:	f1b8 0f05 	cmp.w	r8, #5
 8002726:	d958      	bls.n	80027da <f_open+0x41e>
 8002728:	f1a9 0102 	sub.w	r1, r9, #2
 800272c:	4643      	mov	r3, r8
 800272e:	f831 2f02 	ldrh.w	r2, [r1, #2]!
 8002732:	2a00      	cmp	r2, #0
 8002734:	d143      	bne.n	80027be <f_open+0x402>
 8002736:	f10d 0027 	add.w	r0, sp, #39	; 0x27
 800273a:	2207      	movs	r2, #7
 800273c:	f003 0c0f 	and.w	ip, r3, #15
 8002740:	f10c 0130 	add.w	r1, ip, #48	; 0x30
 8002744:	2939      	cmp	r1, #57	; 0x39
 8002746:	bf88      	it	hi
 8002748:	f10c 0137 	addhi.w	r1, ip, #55	; 0x37
 800274c:	2b0f      	cmp	r3, #15
 800274e:	f800 1901 	strb.w	r1, [r0], #-1
 8002752:	f102 32ff 	add.w	r2, r2, #4294967295	; 0xffffffff
 8002756:	ea4f 1113 	mov.w	r1, r3, lsr #4
 800275a:	d840      	bhi.n	80027de <f_open+0x422>
 800275c:	f102 0368 	add.w	r3, r2, #104	; 0x68
 8002760:	446b      	add	r3, sp
 8002762:	217e      	movs	r1, #126	; 0x7e
 8002764:	f803 1c48 	strb.w	r1, [r3, #-72]
 8002768:	a916      	add	r1, sp, #88	; 0x58
 800276a:	2300      	movs	r3, #0
 800276c:	4293      	cmp	r3, r2
 800276e:	d005      	beq.n	800277c <f_open+0x3c0>
 8002770:	f811 0b01 	ldrb.w	r0, [r1], #1
 8002774:	2820      	cmp	r0, #32
 8002776:	f103 0c01 	add.w	ip, r3, #1
 800277a:	d132      	bne.n	80027e2 <f_open+0x426>
 800277c:	2a07      	cmp	r2, #7
 800277e:	bf9c      	itt	ls
 8002780:	f102 0168 	addls.w	r1, r2, #104	; 0x68
 8002784:	4469      	addls	r1, sp
 8002786:	f103 0301 	add.w	r3, r3, #1
 800278a:	a80d      	add	r0, sp, #52	; 0x34
 800278c:	4418      	add	r0, r3
 800278e:	bf96      	itet	ls
 8002790:	f811 1c48 	ldrbls.w	r1, [r1, #-72]
 8002794:	2120      	movhi	r1, #32
 8002796:	3201      	addls	r2, #1
 8002798:	2b07      	cmp	r3, #7
 800279a:	f880 1023 	strb.w	r1, [r0, #35]	; 0x23
 800279e:	d9ed      	bls.n	800277c <f_open+0x3c0>
 80027a0:	a80d      	add	r0, sp, #52	; 0x34
 80027a2:	f7ff fd2d 	bl	8002200 <dir_find>
 80027a6:	2800      	cmp	r0, #0
 80027a8:	f040 8138 	bne.w	8002a1c <f_open+0x660>
 80027ac:	f108 0801 	add.w	r8, r8, #1
 80027b0:	f1b8 0f64 	cmp.w	r8, #100	; 0x64
 80027b4:	d1ae      	bne.n	8002714 <f_open+0x358>
 80027b6:	2007      	movs	r0, #7
 80027b8:	e646      	b.n	8002448 <f_open+0x8c>
 80027ba:	3401      	adds	r4, #1
 80027bc:	e796      	b.n	80026ec <f_open+0x330>
 80027be:	2010      	movs	r0, #16
 80027c0:	f002 0c01 	and.w	ip, r2, #1
 80027c4:	eb0c 0343 	add.w	r3, ip, r3, lsl #1
 80027c8:	f413 3f80 	tst.w	r3, #65536	; 0x10000
 80027cc:	bf18      	it	ne
 80027ce:	4073      	eorne	r3, r6
 80027d0:	3801      	subs	r0, #1
 80027d2:	ea4f 0252 	mov.w	r2, r2, lsr #1
 80027d6:	d1f3      	bne.n	80027c0 <f_open+0x404>
 80027d8:	e7a9      	b.n	800272e <f_open+0x372>
 80027da:	4643      	mov	r3, r8
 80027dc:	e7ab      	b.n	8002736 <f_open+0x37a>
 80027de:	460b      	mov	r3, r1
 80027e0:	e7ac      	b.n	800273c <f_open+0x380>
 80027e2:	4663      	mov	r3, ip
 80027e4:	e7c2      	b.n	800276c <f_open+0x3b0>
 80027e6:	4606      	mov	r6, r0
 80027e8:	2101      	movs	r1, #1
 80027ea:	a80d      	add	r0, sp, #52	; 0x34
 80027ec:	f7ff fc86 	bl	80020fc <dir_next>
 80027f0:	2800      	cmp	r0, #0
 80027f2:	f000 8130 	beq.w	8002a56 <f_open+0x69a>
 80027f6:	2804      	cmp	r0, #4
 80027f8:	d0dd      	beq.n	80027b6 <f_open+0x3fa>
 80027fa:	e625      	b.n	8002448 <f_open+0x8c>
 80027fc:	9800      	ldr	r0, [sp, #0]
 80027fe:	e149      	b.n	8002a94 <f_open+0x6d8>
 8002800:	f89d 303a 	ldrb.w	r3, [sp, #58]	; 0x3a
 8002804:	f013 0f11 	tst.w	r3, #17
 8002808:	d1d5      	bne.n	80027b6 <f_open+0x3fa>
 800280a:	f019 0f04 	tst.w	r9, #4
 800280e:	f040 80fe 	bne.w	8002a0e <f_open+0x652>
 8002812:	f019 0f08 	tst.w	r9, #8
 8002816:	f040 81ab 	bne.w	8002b70 <f_open+0x7b4>
 800281a:	9c07      	ldr	r4, [sp, #28]
 800281c:	4a69      	ldr	r2, [pc, #420]	; (80029c4 <f_open+0x608>)
 800281e:	6b63      	ldr	r3, [r4, #52]	; 0x34
 8002820:	990d      	ldr	r1, [sp, #52]	; 0x34
 8002822:	626b      	str	r3, [r5, #36]	; 0x24
 8002824:	6813      	ldr	r3, [r2, #0]
 8002826:	f8dd c054 	ldr.w	ip, [sp, #84]	; 0x54
 800282a:	9e0f      	ldr	r6, [sp, #60]	; 0x3c
 800282c:	9812      	ldr	r0, [sp, #72]	; 0x48
 800282e:	f8c5 c028 	str.w	ip, [r5, #40]	; 0x28
 8002832:	f01a 0f08 	tst.w	sl, #8
 8002836:	bf18      	it	ne
 8002838:	f04a 0a40 	orrne.w	sl, sl, #64	; 0x40
 800283c:	4299      	cmp	r1, r3
 800283e:	f02a 0e01 	bic.w	lr, sl, #1
 8002842:	d106      	bne.n	8002852 <f_open+0x496>
 8002844:	6857      	ldr	r7, [r2, #4]
 8002846:	42be      	cmp	r6, r7
 8002848:	d103      	bne.n	8002852 <f_open+0x496>
 800284a:	6897      	ldr	r7, [r2, #8]
 800284c:	42b8      	cmp	r0, r7
 800284e:	f000 80bb 	beq.w	80029c8 <f_open+0x60c>
 8002852:	f8d2 8010 	ldr.w	r8, [r2, #16]
 8002856:	4588      	cmp	r8, r1
 8002858:	d106      	bne.n	8002868 <f_open+0x4ac>
 800285a:	6957      	ldr	r7, [r2, #20]
 800285c:	42b7      	cmp	r7, r6
 800285e:	d103      	bne.n	8002868 <f_open+0x4ac>
 8002860:	6997      	ldr	r7, [r2, #24]
 8002862:	4287      	cmp	r7, r0
 8002864:	f000 80bd 	beq.w	80029e2 <f_open+0x626>
 8002868:	2b00      	cmp	r3, #0
 800286a:	d04a      	beq.n	8002902 <f_open+0x546>
 800286c:	f1b8 0f00 	cmp.w	r8, #0
 8002870:	d046      	beq.n	8002900 <f_open+0x544>
 8002872:	2300      	movs	r3, #0
 8002874:	612b      	str	r3, [r5, #16]
 8002876:	e1a6      	b.n	8002bc6 <f_open+0x80a>
 8002878:	9f0d      	ldr	r7, [sp, #52]	; 0x34
 800287a:	69fb      	ldr	r3, [r7, #28]
 800287c:	4298      	cmp	r0, r3
 800287e:	f080 81a2 	bcs.w	8002bc6 <f_open+0x80a>
 8002882:	f8d6 8034 	ldr.w	r8, [r6, #52]	; 0x34
 8002886:	4606      	mov	r6, r0
 8002888:	4631      	mov	r1, r6
 800288a:	980d      	ldr	r0, [sp, #52]	; 0x34
 800288c:	9600      	str	r6, [sp, #0]
 800288e:	f7ff fb2e 	bl	8001eee <get_fat.isra.0>
 8002892:	4606      	mov	r6, r0
 8002894:	b1d8      	cbz	r0, 80028ce <f_open+0x512>
 8002896:	2801      	cmp	r0, #1
 8002898:	f000 8195 	beq.w	8002bc6 <f_open+0x80a>
 800289c:	1c41      	adds	r1, r0, #1
 800289e:	9900      	ldr	r1, [sp, #0]
 80028a0:	d101      	bne.n	80028a6 <f_open+0x4ea>
 80028a2:	2001      	movs	r0, #1
 80028a4:	e5d0      	b.n	8002448 <f_open+0x8c>
 80028a6:	2200      	movs	r2, #0
 80028a8:	4638      	mov	r0, r7
 80028aa:	f7ff fa83 	bl	8001db4 <put_fat>
 80028ae:	2800      	cmp	r0, #0
 80028b0:	f47f adca 	bne.w	8002448 <f_open+0x8c>
 80028b4:	e9d7 3206 	ldrd	r3, r2, [r7, #24]
 80028b8:	1e91      	subs	r1, r2, #2
 80028ba:	428b      	cmp	r3, r1
 80028bc:	d205      	bcs.n	80028ca <f_open+0x50e>
 80028be:	3301      	adds	r3, #1
 80028c0:	61bb      	str	r3, [r7, #24]
 80028c2:	793b      	ldrb	r3, [r7, #4]
 80028c4:	f043 0301 	orr.w	r3, r3, #1
 80028c8:	713b      	strb	r3, [r7, #4]
 80028ca:	4296      	cmp	r6, r2
 80028cc:	d3dc      	bcc.n	8002888 <f_open+0x4cc>
 80028ce:	9807      	ldr	r0, [sp, #28]
 80028d0:	4641      	mov	r1, r8
 80028d2:	f7ff f8c9 	bl	8001a68 <move_window>
 80028d6:	9b07      	ldr	r3, [sp, #28]
 80028d8:	3c01      	subs	r4, #1
 80028da:	615c      	str	r4, [r3, #20]
 80028dc:	2800      	cmp	r0, #0
 80028de:	d09c      	beq.n	800281a <f_open+0x45e>
 80028e0:	e5b2      	b.n	8002448 <f_open+0x8c>
 80028e2:	2800      	cmp	r0, #0
 80028e4:	f47f adb0 	bne.w	8002448 <f_open+0x8c>
 80028e8:	f89d 303a 	ldrb.w	r3, [sp, #58]	; 0x3a
 80028ec:	06da      	lsls	r2, r3, #27
 80028ee:	f100 8090 	bmi.w	8002a12 <f_open+0x656>
 80028f2:	f019 0f02 	tst.w	r9, #2
 80028f6:	d090      	beq.n	800281a <f_open+0x45e>
 80028f8:	07db      	lsls	r3, r3, #31
 80028fa:	f53f af5c 	bmi.w	80027b6 <f_open+0x3fa>
 80028fe:	e78c      	b.n	800281a <f_open+0x45e>
 8002900:	2301      	movs	r3, #1
 8002902:	eb02 1703 	add.w	r7, r2, r3, lsl #4
 8002906:	ea4f 1803 	mov.w	r8, r3, lsl #4
 800290a:	e9c7 6001 	strd	r6, r0, [r7, #4]
 800290e:	2000      	movs	r0, #0
 8002910:	f842 1008 	str.w	r1, [r2, r8]
 8002914:	81b8      	strh	r0, [r7, #12]
 8002916:	f1be 0f00 	cmp.w	lr, #0
 800291a:	d15f      	bne.n	80029dc <f_open+0x620>
 800291c:	eb02 1103 	add.w	r1, r2, r3, lsl #4
 8002920:	8989      	ldrh	r1, [r1, #12]
 8002922:	3101      	adds	r1, #1
 8002924:	b289      	uxth	r1, r1
 8002926:	eb02 1203 	add.w	r2, r2, r3, lsl #4
 800292a:	3301      	adds	r3, #1
 800292c:	612b      	str	r3, [r5, #16]
 800292e:	7820      	ldrb	r0, [r4, #0]
 8002930:	8191      	strh	r1, [r2, #12]
 8002932:	4661      	mov	r1, ip
 8002934:	f7ff fad3 	bl	8001ede <ld_clust.isra.0>
 8002938:	60a8      	str	r0, [r5, #8]
 800293a:	4680      	mov	r8, r0
 800293c:	f101 001c 	add.w	r0, r1, #28
 8002940:	f7ff f80e 	bl	8001960 <ld_dword>
 8002944:	2100      	movs	r1, #0
 8002946:	88e3      	ldrh	r3, [r4, #6]
 8002948:	60e8      	str	r0, [r5, #12]
 800294a:	f105 072c 	add.w	r7, r5, #44	; 0x2c
 800294e:	4606      	mov	r6, r0
 8002950:	602c      	str	r4, [r5, #0]
 8002952:	80ab      	strh	r3, [r5, #4]
 8002954:	f885 a014 	strb.w	sl, [r5, #20]
 8002958:	7569      	strb	r1, [r5, #21]
 800295a:	6229      	str	r1, [r5, #32]
 800295c:	61a9      	str	r1, [r5, #24]
 800295e:	f44f 5280 	mov.w	r2, #4096	; 0x1000
 8002962:	4638      	mov	r0, r7
 8002964:	f000 fb5e 	bl	8003024 <memset>
 8002968:	f01a 0f20 	tst.w	sl, #32
 800296c:	d024      	beq.n	80029b8 <f_open+0x5fc>
 800296e:	b31e      	cbz	r6, 80029b8 <f_open+0x5fc>
 8002970:	8963      	ldrh	r3, [r4, #10]
 8002972:	89a4      	ldrh	r4, [r4, #12]
 8002974:	61ae      	str	r6, [r5, #24]
 8002976:	435c      	muls	r4, r3
 8002978:	42b4      	cmp	r4, r6
 800297a:	d334      	bcc.n	80029e6 <f_open+0x62a>
 800297c:	2000      	movs	r0, #0
 800297e:	f8c5 801c 	str.w	r8, [r5, #28]
 8002982:	2800      	cmp	r0, #0
 8002984:	f47f ad60 	bne.w	8002448 <f_open+0x8c>
 8002988:	9c07      	ldr	r4, [sp, #28]
 800298a:	89a0      	ldrh	r0, [r4, #12]
 800298c:	fbb6 f2f0 	udiv	r2, r6, r0
 8002990:	fb00 6612 	mls	r6, r0, r2, r6
 8002994:	b186      	cbz	r6, 80029b8 <f_open+0x5fc>
 8002996:	4641      	mov	r1, r8
 8002998:	4620      	mov	r0, r4
 800299a:	f7fe fff9 	bl	8001990 <clust2sect>
 800299e:	2800      	cmp	r0, #0
 80029a0:	f000 8111 	beq.w	8002bc6 <f_open+0x80a>
 80029a4:	4402      	add	r2, r0
 80029a6:	622a      	str	r2, [r5, #32]
 80029a8:	7860      	ldrb	r0, [r4, #1]
 80029aa:	2301      	movs	r3, #1
 80029ac:	4639      	mov	r1, r7
 80029ae:	f7fe ffad 	bl	800190c <disk_read>
 80029b2:	2800      	cmp	r0, #0
 80029b4:	f47f af75 	bne.w	80028a2 <f_open+0x4e6>
 80029b8:	9801      	ldr	r0, [sp, #4]
 80029ba:	b01b      	add	sp, #108	; 0x6c
 80029bc:	e8bd 8ff0 	ldmia.w	sp!, {r4, r5, r6, r7, r8, r9, sl, fp, pc}
 80029c0:	00011021 	.word	0x00011021
 80029c4:	20000070 	.word	0x20000070
 80029c8:	2300      	movs	r3, #0
 80029ca:	f1be 0f00 	cmp.w	lr, #0
 80029ce:	d0a5      	beq.n	800291c <f_open+0x560>
 80029d0:	eb02 1103 	add.w	r1, r2, r3, lsl #4
 80029d4:	8989      	ldrh	r1, [r1, #12]
 80029d6:	2900      	cmp	r1, #0
 80029d8:	f47f af4b 	bne.w	8002872 <f_open+0x4b6>
 80029dc:	f44f 7180 	mov.w	r1, #256	; 0x100
 80029e0:	e7a1      	b.n	8002926 <f_open+0x56a>
 80029e2:	2301      	movs	r3, #1
 80029e4:	e7f1      	b.n	80029ca <f_open+0x60e>
 80029e6:	4641      	mov	r1, r8
 80029e8:	6828      	ldr	r0, [r5, #0]
 80029ea:	f7ff fa80 	bl	8001eee <get_fat.isra.0>
 80029ee:	2801      	cmp	r0, #1
 80029f0:	4680      	mov	r8, r0
 80029f2:	eba6 0604 	sub.w	r6, r6, r4
 80029f6:	d904      	bls.n	8002a02 <f_open+0x646>
 80029f8:	f1b0 3fff 	cmp.w	r0, #4294967295	; 0xffffffff
 80029fc:	d1bc      	bne.n	8002978 <f_open+0x5bc>
 80029fe:	2001      	movs	r0, #1
 8002a00:	e7bd      	b.n	800297e <f_open+0x5c2>
 8002a02:	2002      	movs	r0, #2
 8002a04:	e7bb      	b.n	800297e <f_open+0x5c2>
 8002a06:	9801      	ldr	r0, [sp, #4]
 8002a08:	e51e      	b.n	8002448 <f_open+0x8c>
 8002a0a:	2012      	movs	r0, #18
 8002a0c:	e51c      	b.n	8002448 <f_open+0x8c>
 8002a0e:	2008      	movs	r0, #8
 8002a10:	e51a      	b.n	8002448 <f_open+0x8c>
 8002a12:	2004      	movs	r0, #4
 8002a14:	e518      	b.n	8002448 <f_open+0x8c>
 8002a16:	2309      	movs	r3, #9
 8002a18:	9301      	str	r3, [sp, #4]
 8002a1a:	e7cd      	b.n	80029b8 <f_open+0x5fc>
 8002a1c:	2804      	cmp	r0, #4
 8002a1e:	f47f ad13 	bne.w	8002448 <f_open+0x8c>
 8002a22:	f89d 3033 	ldrb.w	r3, [sp, #51]	; 0x33
 8002a26:	f88d 3063 	strb.w	r3, [sp, #99]	; 0x63
 8002a2a:	f89d 3033 	ldrb.w	r3, [sp, #51]	; 0x33
 8002a2e:	f8dd 8034 	ldr.w	r8, [sp, #52]	; 0x34
 8002a32:	0798      	lsls	r0, r3, #30
 8002a34:	bf48      	it	mi
 8002a36:	340c      	addmi	r4, #12
 8002a38:	f04f 0100 	mov.w	r1, #0
 8002a3c:	a80d      	add	r0, sp, #52	; 0x34
 8002a3e:	bf49      	itett	mi
 8002a40:	230d      	movmi	r3, #13
 8002a42:	2401      	movpl	r4, #1
 8002a44:	fbb4 f4f3 	udivmi	r4, r4, r3
 8002a48:	3401      	addmi	r4, #1
 8002a4a:	f7ff fb13 	bl	8002074 <dir_sdi>
 8002a4e:	2800      	cmp	r0, #0
 8002a50:	f47f aed1 	bne.w	80027f6 <f_open+0x43a>
 8002a54:	4606      	mov	r6, r0
 8002a56:	9914      	ldr	r1, [sp, #80]	; 0x50
 8002a58:	4640      	mov	r0, r8
 8002a5a:	f7ff f805 	bl	8001a68 <move_window>
 8002a5e:	2800      	cmp	r0, #0
 8002a60:	f47f aec9 	bne.w	80027f6 <f_open+0x43a>
 8002a64:	9b15      	ldr	r3, [sp, #84]	; 0x54
 8002a66:	781b      	ldrb	r3, [r3, #0]
 8002a68:	2be5      	cmp	r3, #229	; 0xe5
 8002a6a:	d002      	beq.n	8002a72 <f_open+0x6b6>
 8002a6c:	2b00      	cmp	r3, #0
 8002a6e:	f47f aeba 	bne.w	80027e6 <f_open+0x42a>
 8002a72:	3601      	adds	r6, #1
 8002a74:	42b4      	cmp	r4, r6
 8002a76:	f47f aeb7 	bne.w	80027e8 <f_open+0x42c>
 8002a7a:	3c01      	subs	r4, #1
 8002a7c:	d05d      	beq.n	8002b3a <f_open+0x77e>
 8002a7e:	9912      	ldr	r1, [sp, #72]	; 0x48
 8002a80:	a80d      	add	r0, sp, #52	; 0x34
 8002a82:	eba1 1144 	sub.w	r1, r1, r4, lsl #5
 8002a86:	f7ff faf5 	bl	8002074 <dir_sdi>
 8002a8a:	2800      	cmp	r0, #0
 8002a8c:	f47f acdc 	bne.w	8002448 <f_open+0x8c>
 8002a90:	230b      	movs	r3, #11
 8002a92:	aa16      	add	r2, sp, #88	; 0x58
 8002a94:	01c6      	lsls	r6, r0, #7
 8002a96:	ea46 0050 	orr.w	r0, r6, r0, lsr #1
 8002a9a:	f812 6b01 	ldrb.w	r6, [r2], #1
 8002a9e:	fa56 f680 	uxtab	r6, r6, r0
 8002aa2:	b2f1      	uxtb	r1, r6
 8002aa4:	3b01      	subs	r3, #1
 8002aa6:	9100      	str	r1, [sp, #0]
 8002aa8:	f47f aea8 	bne.w	80027fc <f_open+0x440>
 8002aac:	f64f 78ff 	movw	r8, #65535	; 0xffff
 8002ab0:	9914      	ldr	r1, [sp, #80]	; 0x50
 8002ab2:	4638      	mov	r0, r7
 8002ab4:	f7fe ffd8 	bl	8001a68 <move_window>
 8002ab8:	4684      	mov	ip, r0
 8002aba:	2800      	cmp	r0, #0
 8002abc:	f47f acc4 	bne.w	8002448 <f_open+0x8c>
 8002ac0:	9b15      	ldr	r3, [sp, #84]	; 0x54
 8002ac2:	9a00      	ldr	r2, [sp, #0]
 8002ac4:	f8d7 e010 	ldr.w	lr, [r7, #16]
 8002ac8:	735a      	strb	r2, [r3, #13]
 8002aca:	b2e1      	uxtb	r1, r4
 8002acc:	f04f 020f 	mov.w	r2, #15
 8002ad0:	72da      	strb	r2, [r3, #11]
 8002ad2:	7318      	strb	r0, [r3, #12]
 8002ad4:	7698      	strb	r0, [r3, #26]
 8002ad6:	76d8      	strb	r0, [r3, #27]
 8002ad8:	1e4a      	subs	r2, r1, #1
 8002ada:	200d      	movs	r0, #13
 8002adc:	f8df b114 	ldr.w	fp, [pc, #276]	; 8002bf4 <f_open+0x838>
 8002ae0:	4342      	muls	r2, r0
 8002ae2:	4660      	mov	r0, ip
 8002ae4:	f81b 9b01 	ldrb.w	r9, [fp], #1
 8002ae8:	4540      	cmp	r0, r8
 8002aea:	bf18      	it	ne
 8002aec:	f83e 0012 	ldrhne.w	r0, [lr, r2, lsl #1]
 8002af0:	f803 0009 	strb.w	r0, [r3, r9]
 8002af4:	eb03 0609 	add.w	r6, r3, r9
 8002af8:	f10c 0c01 	add.w	ip, ip, #1
 8002afc:	bf18      	it	ne
 8002afe:	3201      	addne	r2, #1
 8002b00:	ea4f 2910 	mov.w	r9, r0, lsr #8
 8002b04:	2800      	cmp	r0, #0
 8002b06:	bf08      	it	eq
 8002b08:	4640      	moveq	r0, r8
 8002b0a:	f1bc 0f0d 	cmp.w	ip, #13
 8002b0e:	f886 9001 	strb.w	r9, [r6, #1]
 8002b12:	d1e7      	bne.n	8002ae4 <f_open+0x728>
 8002b14:	4540      	cmp	r0, r8
 8002b16:	d002      	beq.n	8002b1e <f_open+0x762>
 8002b18:	f83e 2012 	ldrh.w	r2, [lr, r2, lsl #1]
 8002b1c:	b90a      	cbnz	r2, 8002b22 <f_open+0x766>
 8002b1e:	f041 0140 	orr.w	r1, r1, #64	; 0x40
 8002b22:	7019      	strb	r1, [r3, #0]
 8002b24:	2301      	movs	r3, #1
 8002b26:	70fb      	strb	r3, [r7, #3]
 8002b28:	2100      	movs	r1, #0
 8002b2a:	a80d      	add	r0, sp, #52	; 0x34
 8002b2c:	f7ff fae6 	bl	80020fc <dir_next>
 8002b30:	2800      	cmp	r0, #0
 8002b32:	f47f ac89 	bne.w	8002448 <f_open+0x8c>
 8002b36:	3c01      	subs	r4, #1
 8002b38:	d1ba      	bne.n	8002ab0 <f_open+0x6f4>
 8002b3a:	9914      	ldr	r1, [sp, #80]	; 0x50
 8002b3c:	4638      	mov	r0, r7
 8002b3e:	f7fe ff93 	bl	8001a68 <move_window>
 8002b42:	2800      	cmp	r0, #0
 8002b44:	f47f ac80 	bne.w	8002448 <f_open+0x8c>
 8002b48:	4601      	mov	r1, r0
 8002b4a:	2220      	movs	r2, #32
 8002b4c:	9815      	ldr	r0, [sp, #84]	; 0x54
 8002b4e:	f000 fa69 	bl	8003024 <memset>
 8002b52:	220b      	movs	r2, #11
 8002b54:	9815      	ldr	r0, [sp, #84]	; 0x54
 8002b56:	a916      	add	r1, sp, #88	; 0x58
 8002b58:	f7fe ff57 	bl	8001a0a <mem_cpy.part.0>
 8002b5c:	f89d 3063 	ldrb.w	r3, [sp, #99]	; 0x63
 8002b60:	9a15      	ldr	r2, [sp, #84]	; 0x54
 8002b62:	f003 0318 	and.w	r3, r3, #24
 8002b66:	7313      	strb	r3, [r2, #12]
 8002b68:	2301      	movs	r3, #1
 8002b6a:	70fb      	strb	r3, [r7, #3]
 8002b6c:	f04a 0a08 	orr.w	sl, sl, #8
 8002b70:	f7fe fb78 	bl	8001264 <get_fattime>
 8002b74:	4601      	mov	r1, r0
 8002b76:	9000      	str	r0, [sp, #0]
 8002b78:	9815      	ldr	r0, [sp, #84]	; 0x54
 8002b7a:	300e      	adds	r0, #14
 8002b7c:	f7fe fef2 	bl	8001964 <st_dword>
 8002b80:	9815      	ldr	r0, [sp, #84]	; 0x54
 8002b82:	9900      	ldr	r1, [sp, #0]
 8002b84:	3016      	adds	r0, #22
 8002b86:	f7fe feed 	bl	8001964 <st_dword>
 8002b8a:	9b15      	ldr	r3, [sp, #84]	; 0x54
 8002b8c:	9e07      	ldr	r6, [sp, #28]
 8002b8e:	2220      	movs	r2, #32
 8002b90:	72da      	strb	r2, [r3, #11]
 8002b92:	9915      	ldr	r1, [sp, #84]	; 0x54
 8002b94:	7830      	ldrb	r0, [r6, #0]
 8002b96:	f7ff f9a2 	bl	8001ede <ld_clust.isra.0>
 8002b9a:	2300      	movs	r3, #0
 8002b9c:	768b      	strb	r3, [r1, #26]
 8002b9e:	76cb      	strb	r3, [r1, #27]
 8002ba0:	7832      	ldrb	r2, [r6, #0]
 8002ba2:	2a03      	cmp	r2, #3
 8002ba4:	bf04      	itt	eq
 8002ba6:	750b      	strbeq	r3, [r1, #20]
 8002ba8:	754b      	strbeq	r3, [r1, #21]
 8002baa:	9a15      	ldr	r2, [sp, #84]	; 0x54
 8002bac:	7713      	strb	r3, [r2, #28]
 8002bae:	7753      	strb	r3, [r2, #29]
 8002bb0:	7793      	strb	r3, [r2, #30]
 8002bb2:	77d3      	strb	r3, [r2, #31]
 8002bb4:	2301      	movs	r3, #1
 8002bb6:	4604      	mov	r4, r0
 8002bb8:	70f3      	strb	r3, [r6, #3]
 8002bba:	2800      	cmp	r0, #0
 8002bbc:	f43f ae2d 	beq.w	800281a <f_open+0x45e>
 8002bc0:	4298      	cmp	r0, r3
 8002bc2:	f47f ae59 	bne.w	8002878 <f_open+0x4bc>
 8002bc6:	2002      	movs	r0, #2
 8002bc8:	e43e      	b.n	8002448 <f_open+0x8c>
 8002bca:	2201      	movs	r2, #1
 8002bcc:	2c00      	cmp	r4, #0
 8002bce:	f43f ad77 	beq.w	80026c0 <f_open+0x304>
 8002bd2:	2010      	movs	r0, #16
 8002bd4:	e421      	b.n	800241a <f_open+0x5e>
 8002bd6:	f1a0 0141 	sub.w	r1, r0, #65	; 0x41
 8002bda:	2919      	cmp	r1, #25
 8002bdc:	f67f acd1 	bls.w	8002582 <f_open+0x1c6>
 8002be0:	f1a0 0161 	sub.w	r1, r0, #97	; 0x61
 8002be4:	2919      	cmp	r1, #25
 8002be6:	bf9e      	ittt	ls
 8002be8:	3820      	subls	r0, #32
 8002bea:	f046 0601 	orrls.w	r6, r6, #1
 8002bee:	b280      	uxthls	r0, r0
 8002bf0:	e4bf      	b.n	8002572 <f_open+0x1b6>
 8002bf2:	bf00      	nop
 8002bf4:	08003110 	.word	0x08003110

08002bf8 <f_read>:
 8002bf8:	e92d 4ff0 	stmdb	sp!, {r4, r5, r6, r7, r8, r9, sl, fp, lr}
 8002bfc:	4699      	mov	r9, r3
 8002bfe:	b085      	sub	sp, #20
 8002c00:	2300      	movs	r3, #0
 8002c02:	4688      	mov	r8, r1
 8002c04:	f8c9 3000 	str.w	r3, [r9]
 8002c08:	a903      	add	r1, sp, #12
 8002c0a:	4604      	mov	r4, r0
 8002c0c:	4616      	mov	r6, r2
 8002c0e:	f7fe fee2 	bl	80019d6 <validate>
 8002c12:	4605      	mov	r5, r0
 8002c14:	bb20      	cbnz	r0, 8002c60 <f_read+0x68>
 8002c16:	7d65      	ldrb	r5, [r4, #21]
 8002c18:	bb15      	cbnz	r5, 8002c60 <f_read+0x68>
 8002c1a:	7d23      	ldrb	r3, [r4, #20]
 8002c1c:	f013 0301 	ands.w	r3, r3, #1
 8002c20:	9301      	str	r3, [sp, #4]
 8002c22:	f000 808e 	beq.w	8002d42 <f_read+0x14a>
 8002c26:	68e2      	ldr	r2, [r4, #12]
 8002c28:	69a3      	ldr	r3, [r4, #24]
 8002c2a:	1ad2      	subs	r2, r2, r3
 8002c2c:	4296      	cmp	r6, r2
 8002c2e:	bf28      	it	cs
 8002c30:	4616      	movcs	r6, r2
 8002c32:	f104 0b2c 	add.w	fp, r4, #44	; 0x2c
 8002c36:	b19e      	cbz	r6, 8002c60 <f_read+0x68>
 8002c38:	9803      	ldr	r0, [sp, #12]
 8002c3a:	69a2      	ldr	r2, [r4, #24]
 8002c3c:	8983      	ldrh	r3, [r0, #12]
 8002c3e:	fbb2 f1f3 	udiv	r1, r2, r3
 8002c42:	fb03 2311 	mls	r3, r3, r1, r2
 8002c46:	2b00      	cmp	r3, #0
 8002c48:	d168      	bne.n	8002d1c <f_read+0x124>
 8002c4a:	8943      	ldrh	r3, [r0, #10]
 8002c4c:	3b01      	subs	r3, #1
 8002c4e:	400b      	ands	r3, r1
 8002c50:	9300      	str	r3, [sp, #0]
 8002c52:	d115      	bne.n	8002c80 <f_read+0x88>
 8002c54:	b942      	cbnz	r2, 8002c68 <f_read+0x70>
 8002c56:	68a0      	ldr	r0, [r4, #8]
 8002c58:	2801      	cmp	r0, #1
 8002c5a:	d80a      	bhi.n	8002c72 <f_read+0x7a>
 8002c5c:	2502      	movs	r5, #2
 8002c5e:	7565      	strb	r5, [r4, #21]
 8002c60:	4628      	mov	r0, r5
 8002c62:	b005      	add	sp, #20
 8002c64:	e8bd 8ff0 	ldmia.w	sp!, {r4, r5, r6, r7, r8, r9, sl, fp, pc}
 8002c68:	69e1      	ldr	r1, [r4, #28]
 8002c6a:	6820      	ldr	r0, [r4, #0]
 8002c6c:	f7ff f93f 	bl	8001eee <get_fat.isra.0>
 8002c70:	e7f2      	b.n	8002c58 <f_read+0x60>
 8002c72:	1c43      	adds	r3, r0, #1
 8002c74:	d103      	bne.n	8002c7e <f_read+0x86>
 8002c76:	2301      	movs	r3, #1
 8002c78:	9d01      	ldr	r5, [sp, #4]
 8002c7a:	7563      	strb	r3, [r4, #21]
 8002c7c:	e7f0      	b.n	8002c60 <f_read+0x68>
 8002c7e:	61e0      	str	r0, [r4, #28]
 8002c80:	f8dd a00c 	ldr.w	sl, [sp, #12]
 8002c84:	69e1      	ldr	r1, [r4, #28]
 8002c86:	4650      	mov	r0, sl
 8002c88:	f7fe fe82 	bl	8001990 <clust2sect>
 8002c8c:	2800      	cmp	r0, #0
 8002c8e:	d0e5      	beq.n	8002c5c <f_read+0x64>
 8002c90:	9b00      	ldr	r3, [sp, #0]
 8002c92:	181f      	adds	r7, r3, r0
 8002c94:	f8ba 300c 	ldrh.w	r3, [sl, #12]
 8002c98:	42b3      	cmp	r3, r6
 8002c9a:	d822      	bhi.n	8002ce2 <f_read+0xea>
 8002c9c:	fbb6 f3f3 	udiv	r3, r6, r3
 8002ca0:	9900      	ldr	r1, [sp, #0]
 8002ca2:	f8ba 200a 	ldrh.w	r2, [sl, #10]
 8002ca6:	f89a 0001 	ldrb.w	r0, [sl, #1]
 8002caa:	4419      	add	r1, r3
 8002cac:	4291      	cmp	r1, r2
 8002cae:	bf88      	it	hi
 8002cb0:	9b00      	ldrhi	r3, [sp, #0]
 8002cb2:	4641      	mov	r1, r8
 8002cb4:	bf88      	it	hi
 8002cb6:	1ad3      	subhi	r3, r2, r3
 8002cb8:	463a      	mov	r2, r7
 8002cba:	9300      	str	r3, [sp, #0]
 8002cbc:	f7fe fe26 	bl	800190c <disk_read>
 8002cc0:	2800      	cmp	r0, #0
 8002cc2:	d1d8      	bne.n	8002c76 <f_read+0x7e>
 8002cc4:	9a03      	ldr	r2, [sp, #12]
 8002cc6:	9b00      	ldr	r3, [sp, #0]
 8002cc8:	8997      	ldrh	r7, [r2, #12]
 8002cca:	435f      	muls	r7, r3
 8002ccc:	69a3      	ldr	r3, [r4, #24]
 8002cce:	443b      	add	r3, r7
 8002cd0:	61a3      	str	r3, [r4, #24]
 8002cd2:	f8d9 3000 	ldr.w	r3, [r9]
 8002cd6:	443b      	add	r3, r7
 8002cd8:	44b8      	add	r8, r7
 8002cda:	f8c9 3000 	str.w	r3, [r9]
 8002cde:	1bf6      	subs	r6, r6, r7
 8002ce0:	e7a9      	b.n	8002c36 <f_read+0x3e>
 8002ce2:	6a22      	ldr	r2, [r4, #32]
 8002ce4:	42ba      	cmp	r2, r7
 8002ce6:	d018      	beq.n	8002d1a <f_read+0x122>
 8002ce8:	f994 3014 	ldrsb.w	r3, [r4, #20]
 8002cec:	2b00      	cmp	r3, #0
 8002cee:	da0b      	bge.n	8002d08 <f_read+0x110>
 8002cf0:	f89a 0001 	ldrb.w	r0, [sl, #1]
 8002cf4:	2301      	movs	r3, #1
 8002cf6:	4659      	mov	r1, fp
 8002cf8:	f7fe fe16 	bl	8001928 <disk_write>
 8002cfc:	2800      	cmp	r0, #0
 8002cfe:	d1ba      	bne.n	8002c76 <f_read+0x7e>
 8002d00:	7d23      	ldrb	r3, [r4, #20]
 8002d02:	f003 037f 	and.w	r3, r3, #127	; 0x7f
 8002d06:	7523      	strb	r3, [r4, #20]
 8002d08:	9803      	ldr	r0, [sp, #12]
 8002d0a:	2301      	movs	r3, #1
 8002d0c:	7840      	ldrb	r0, [r0, #1]
 8002d0e:	463a      	mov	r2, r7
 8002d10:	4659      	mov	r1, fp
 8002d12:	f7fe fdfb 	bl	800190c <disk_read>
 8002d16:	2800      	cmp	r0, #0
 8002d18:	d1ad      	bne.n	8002c76 <f_read+0x7e>
 8002d1a:	6227      	str	r7, [r4, #32]
 8002d1c:	9b03      	ldr	r3, [sp, #12]
 8002d1e:	69a1      	ldr	r1, [r4, #24]
 8002d20:	899f      	ldrh	r7, [r3, #12]
 8002d22:	fbb1 f3f7 	udiv	r3, r1, r7
 8002d26:	fb07 1113 	mls	r1, r7, r3, r1
 8002d2a:	1a7f      	subs	r7, r7, r1
 8002d2c:	42b7      	cmp	r7, r6
 8002d2e:	bf28      	it	cs
 8002d30:	4637      	movcs	r7, r6
 8002d32:	2f00      	cmp	r7, #0
 8002d34:	d0ca      	beq.n	8002ccc <f_read+0xd4>
 8002d36:	463a      	mov	r2, r7
 8002d38:	4459      	add	r1, fp
 8002d3a:	4640      	mov	r0, r8
 8002d3c:	f7fe fe65 	bl	8001a0a <mem_cpy.part.0>
 8002d40:	e7c4      	b.n	8002ccc <f_read+0xd4>
 8002d42:	2507      	movs	r5, #7
 8002d44:	e78c      	b.n	8002c60 <f_read+0x68>

08002d46 <f_sync>:
 8002d46:	e92d 41f3 	stmdb	sp!, {r0, r1, r4, r5, r6, r7, r8, lr}
 8002d4a:	a901      	add	r1, sp, #4
 8002d4c:	4605      	mov	r5, r0
 8002d4e:	f7fe fe42 	bl	80019d6 <validate>
 8002d52:	2800      	cmp	r0, #0
 8002d54:	f040 808e 	bne.w	8002e74 <f_sync+0x12e>
 8002d58:	7d2b      	ldrb	r3, [r5, #20]
 8002d5a:	f013 0040 	ands.w	r0, r3, #64	; 0x40
 8002d5e:	f000 8089 	beq.w	8002e74 <f_sync+0x12e>
 8002d62:	061b      	lsls	r3, r3, #24
 8002d64:	d50d      	bpl.n	8002d82 <f_sync+0x3c>
 8002d66:	9801      	ldr	r0, [sp, #4]
 8002d68:	6a2a      	ldr	r2, [r5, #32]
 8002d6a:	7840      	ldrb	r0, [r0, #1]
 8002d6c:	2301      	movs	r3, #1
 8002d6e:	f105 012c 	add.w	r1, r5, #44	; 0x2c
 8002d72:	f7fe fdd9 	bl	8001928 <disk_write>
 8002d76:	2800      	cmp	r0, #0
 8002d78:	d17f      	bne.n	8002e7a <f_sync+0x134>
 8002d7a:	7d2b      	ldrb	r3, [r5, #20]
 8002d7c:	f003 037f 	and.w	r3, r3, #127	; 0x7f
 8002d80:	752b      	strb	r3, [r5, #20]
 8002d82:	f7fe fa6f 	bl	8001264 <get_fattime>
 8002d86:	6a69      	ldr	r1, [r5, #36]	; 0x24
 8002d88:	4604      	mov	r4, r0
 8002d8a:	9801      	ldr	r0, [sp, #4]
 8002d8c:	f7fe fe6c 	bl	8001a68 <move_window>
 8002d90:	2800      	cmp	r0, #0
 8002d92:	d16f      	bne.n	8002e74 <f_sync+0x12e>
 8002d94:	6aaa      	ldr	r2, [r5, #40]	; 0x28
 8002d96:	7ad3      	ldrb	r3, [r2, #11]
 8002d98:	f043 0320 	orr.w	r3, r3, #32
 8002d9c:	72d3      	strb	r3, [r2, #11]
 8002d9e:	68ab      	ldr	r3, [r5, #8]
 8002da0:	6829      	ldr	r1, [r5, #0]
 8002da2:	7693      	strb	r3, [r2, #26]
 8002da4:	f3c3 2007 	ubfx	r0, r3, #8, #8
 8002da8:	76d0      	strb	r0, [r2, #27]
 8002daa:	7809      	ldrb	r1, [r1, #0]
 8002dac:	2903      	cmp	r1, #3
 8002dae:	bf01      	itttt	eq
 8002db0:	0c1b      	lsreq	r3, r3, #16
 8002db2:	7513      	strbeq	r3, [r2, #20]
 8002db4:	0a1b      	lsreq	r3, r3, #8
 8002db6:	7553      	strbeq	r3, [r2, #21]
 8002db8:	f102 001c 	add.w	r0, r2, #28
 8002dbc:	68e9      	ldr	r1, [r5, #12]
 8002dbe:	f7fe fdd1 	bl	8001964 <st_dword>
 8002dc2:	4621      	mov	r1, r4
 8002dc4:	f102 0016 	add.w	r0, r2, #22
 8002dc8:	f7fe fdcc 	bl	8001964 <st_dword>
 8002dcc:	9c01      	ldr	r4, [sp, #4]
 8002dce:	2300      	movs	r3, #0
 8002dd0:	7493      	strb	r3, [r2, #18]
 8002dd2:	74d3      	strb	r3, [r2, #19]
 8002dd4:	2301      	movs	r3, #1
 8002dd6:	70e3      	strb	r3, [r4, #3]
 8002dd8:	4620      	mov	r0, r4
 8002dda:	f7fe fe1f 	bl	8001a1c <sync_window.part.0>
 8002dde:	4606      	mov	r6, r0
 8002de0:	2800      	cmp	r0, #0
 8002de2:	d143      	bne.n	8002e6c <f_sync+0x126>
 8002de4:	7823      	ldrb	r3, [r4, #0]
 8002de6:	2b03      	cmp	r3, #3
 8002de8:	d138      	bne.n	8002e5c <f_sync+0x116>
 8002dea:	f894 8004 	ldrb.w	r8, [r4, #4]
 8002dee:	f1b8 0f01 	cmp.w	r8, #1
 8002df2:	d133      	bne.n	8002e5c <f_sync+0x116>
 8002df4:	f104 0738 	add.w	r7, r4, #56	; 0x38
 8002df8:	4601      	mov	r1, r0
 8002dfa:	89a2      	ldrh	r2, [r4, #12]
 8002dfc:	4638      	mov	r0, r7
 8002dfe:	f000 f911 	bl	8003024 <memset>
 8002e02:	2355      	movs	r3, #85	; 0x55
 8002e04:	f884 3236 	strb.w	r3, [r4, #566]	; 0x236
 8002e08:	23aa      	movs	r3, #170	; 0xaa
 8002e0a:	f884 3237 	strb.w	r3, [r4, #567]	; 0x237
 8002e0e:	2352      	movs	r3, #82	; 0x52
 8002e10:	2241      	movs	r2, #65	; 0x41
 8002e12:	2172      	movs	r1, #114	; 0x72
 8002e14:	f884 3038 	strb.w	r3, [r4, #56]	; 0x38
 8002e18:	f884 3039 	strb.w	r3, [r4, #57]	; 0x39
 8002e1c:	2361      	movs	r3, #97	; 0x61
 8002e1e:	f884 303a 	strb.w	r3, [r4, #58]	; 0x3a
 8002e22:	f884 321f 	strb.w	r3, [r4, #543]	; 0x21f
 8002e26:	f884 203b 	strb.w	r2, [r4, #59]	; 0x3b
 8002e2a:	f884 121c 	strb.w	r1, [r4, #540]	; 0x21c
 8002e2e:	f884 121d 	strb.w	r1, [r4, #541]	; 0x21d
 8002e32:	f884 221e 	strb.w	r2, [r4, #542]	; 0x21e
 8002e36:	69a1      	ldr	r1, [r4, #24]
 8002e38:	f504 7008 	add.w	r0, r4, #544	; 0x220
 8002e3c:	f7fe fd92 	bl	8001964 <st_dword>
 8002e40:	6961      	ldr	r1, [r4, #20]
 8002e42:	f504 7009 	add.w	r0, r4, #548	; 0x224
 8002e46:	f7fe fd8d 	bl	8001964 <st_dword>
 8002e4a:	6a62      	ldr	r2, [r4, #36]	; 0x24
 8002e4c:	7860      	ldrb	r0, [r4, #1]
 8002e4e:	3201      	adds	r2, #1
 8002e50:	6362      	str	r2, [r4, #52]	; 0x34
 8002e52:	4643      	mov	r3, r8
 8002e54:	4639      	mov	r1, r7
 8002e56:	f7fe fd67 	bl	8001928 <disk_write>
 8002e5a:	7126      	strb	r6, [r4, #4]
 8002e5c:	2200      	movs	r2, #0
 8002e5e:	7860      	ldrb	r0, [r4, #1]
 8002e60:	4611      	mov	r1, r2
 8002e62:	f7fe fd6f 	bl	8001944 <disk_ioctl>
 8002e66:	3800      	subs	r0, #0
 8002e68:	bf18      	it	ne
 8002e6a:	2001      	movne	r0, #1
 8002e6c:	7d2b      	ldrb	r3, [r5, #20]
 8002e6e:	f023 0340 	bic.w	r3, r3, #64	; 0x40
 8002e72:	752b      	strb	r3, [r5, #20]
 8002e74:	b002      	add	sp, #8
 8002e76:	e8bd 81f0 	ldmia.w	sp!, {r4, r5, r6, r7, r8, pc}
 8002e7a:	2001      	movs	r0, #1
 8002e7c:	e7fa      	b.n	8002e74 <f_sync+0x12e>
	...

08002e80 <f_close>:
 8002e80:	b537      	push	{r0, r1, r2, r4, r5, lr}
 8002e82:	4604      	mov	r4, r0
 8002e84:	f7ff ff5f 	bl	8002d46 <f_sync>
 8002e88:	b9e8      	cbnz	r0, 8002ec6 <f_close+0x46>
 8002e8a:	a901      	add	r1, sp, #4
 8002e8c:	4620      	mov	r0, r4
 8002e8e:	f7fe fda2 	bl	80019d6 <validate>
 8002e92:	b9c0      	cbnz	r0, 8002ec6 <f_close+0x46>
 8002e94:	6923      	ldr	r3, [r4, #16]
 8002e96:	3b01      	subs	r3, #1
 8002e98:	2b01      	cmp	r3, #1
 8002e9a:	d816      	bhi.n	8002eca <f_close+0x4a>
 8002e9c:	490c      	ldr	r1, [pc, #48]	; (8002ed0 <f_close+0x50>)
 8002e9e:	011d      	lsls	r5, r3, #4
 8002ea0:	eb01 1303 	add.w	r3, r1, r3, lsl #4
 8002ea4:	899a      	ldrh	r2, [r3, #12]
 8002ea6:	f5b2 7f80 	cmp.w	r2, #256	; 0x100
 8002eaa:	d103      	bne.n	8002eb4 <f_close+0x34>
 8002eac:	8198      	strh	r0, [r3, #12]
 8002eae:	2300      	movs	r3, #0
 8002eb0:	514b      	str	r3, [r1, r5]
 8002eb2:	e006      	b.n	8002ec2 <f_close+0x42>
 8002eb4:	2a00      	cmp	r2, #0
 8002eb6:	d0fa      	beq.n	8002eae <f_close+0x2e>
 8002eb8:	3a01      	subs	r2, #1
 8002eba:	b292      	uxth	r2, r2
 8002ebc:	819a      	strh	r2, [r3, #12]
 8002ebe:	2a00      	cmp	r2, #0
 8002ec0:	d0f5      	beq.n	8002eae <f_close+0x2e>
 8002ec2:	2300      	movs	r3, #0
 8002ec4:	6023      	str	r3, [r4, #0]
 8002ec6:	b003      	add	sp, #12
 8002ec8:	bd30      	pop	{r4, r5, pc}
 8002eca:	2002      	movs	r0, #2
 8002ecc:	e7fb      	b.n	8002ec6 <f_close+0x46>
 8002ece:	bf00      	nop
 8002ed0:	20000070 	.word	0x20000070

08002ed4 <FATFS_LinkDriverEx>:
 8002ed4:	b530      	push	{r4, r5, lr}
 8002ed6:	4b0e      	ldr	r3, [pc, #56]	; (8002f10 <FATFS_LinkDriverEx+0x3c>)
 8002ed8:	7a5c      	ldrb	r4, [r3, #9]
 8002eda:	4605      	mov	r5, r0
 8002edc:	f004 00ff 	and.w	r0, r4, #255	; 0xff
 8002ee0:	b9a4      	cbnz	r4, 8002f0c <FATFS_LinkDriverEx+0x38>
 8002ee2:	7a5c      	ldrb	r4, [r3, #9]
 8002ee4:	5518      	strb	r0, [r3, r4]
 8002ee6:	7a5c      	ldrb	r4, [r3, #9]
 8002ee8:	eb03 0484 	add.w	r4, r3, r4, lsl #2
 8002eec:	6065      	str	r5, [r4, #4]
 8002eee:	7a5c      	ldrb	r4, [r3, #9]
 8002ef0:	441c      	add	r4, r3
 8002ef2:	7222      	strb	r2, [r4, #8]
 8002ef4:	7a5a      	ldrb	r2, [r3, #9]
 8002ef6:	1c54      	adds	r4, r2, #1
 8002ef8:	b2e4      	uxtb	r4, r4
 8002efa:	725c      	strb	r4, [r3, #9]
 8002efc:	233a      	movs	r3, #58	; 0x3a
 8002efe:	3230      	adds	r2, #48	; 0x30
 8002f00:	704b      	strb	r3, [r1, #1]
 8002f02:	232f      	movs	r3, #47	; 0x2f
 8002f04:	700a      	strb	r2, [r1, #0]
 8002f06:	708b      	strb	r3, [r1, #2]
 8002f08:	70c8      	strb	r0, [r1, #3]
 8002f0a:	bd30      	pop	{r4, r5, pc}
 8002f0c:	2001      	movs	r0, #1
 8002f0e:	e7fc      	b.n	8002f0a <FATFS_LinkDriverEx+0x36>
 8002f10:	20000294 	.word	0x20000294

08002f14 <FATFS_LinkDriver>:
 8002f14:	2200      	movs	r2, #0
 8002f16:	f7ff bfdd 	b.w	8002ed4 <FATFS_LinkDriverEx>
	...

08002f1c <ff_convert>:
 8002f1c:	287f      	cmp	r0, #127	; 0x7f
 8002f1e:	b510      	push	{r4, lr}
 8002f20:	d906      	bls.n	8002f30 <ff_convert+0x14>
 8002f22:	b131      	cbz	r1, 8002f32 <ff_convert+0x16>
 8002f24:	28ff      	cmp	r0, #255	; 0xff
 8002f26:	d812      	bhi.n	8002f4e <ff_convert+0x32>
 8002f28:	4b0a      	ldr	r3, [pc, #40]	; (8002f54 <ff_convert+0x38>)
 8002f2a:	3880      	subs	r0, #128	; 0x80
 8002f2c:	f833 0010 	ldrh.w	r0, [r3, r0, lsl #1]
 8002f30:	bd10      	pop	{r4, pc}
 8002f32:	4a08      	ldr	r2, [pc, #32]	; (8002f54 <ff_convert+0x38>)
 8002f34:	f832 4b02 	ldrh.w	r4, [r2], #2
 8002f38:	4284      	cmp	r4, r0
 8002f3a:	b28b      	uxth	r3, r1
 8002f3c:	d003      	beq.n	8002f46 <ff_convert+0x2a>
 8002f3e:	3101      	adds	r1, #1
 8002f40:	2980      	cmp	r1, #128	; 0x80
 8002f42:	d1f7      	bne.n	8002f34 <ff_convert+0x18>
 8002f44:	460b      	mov	r3, r1
 8002f46:	f103 0080 	add.w	r0, r3, #128	; 0x80
 8002f4a:	b2c0      	uxtb	r0, r0
 8002f4c:	e7f0      	b.n	8002f30 <ff_convert+0x14>
 8002f4e:	2000      	movs	r0, #0
 8002f50:	e7ee      	b.n	8002f30 <ff_convert+0x14>
 8002f52:	bf00      	nop
 8002f54:	0800311e 	.word	0x0800311e

08002f58 <ff_wtoupper>:
 8002f58:	b570      	push	{r4, r5, r6, lr}
 8002f5a:	4b1e      	ldr	r3, [pc, #120]	; (8002fd4 <ff_wtoupper+0x7c>)
 8002f5c:	4a1e      	ldr	r2, [pc, #120]	; (8002fd8 <ff_wtoupper+0x80>)
 8002f5e:	f5b0 5f80 	cmp.w	r0, #4096	; 0x1000
 8002f62:	bf28      	it	cs
 8002f64:	4613      	movcs	r3, r2
 8002f66:	1d19      	adds	r1, r3, #4
 8002f68:	f831 3c04 	ldrh.w	r3, [r1, #-4]
 8002f6c:	460a      	mov	r2, r1
 8002f6e:	b1ab      	cbz	r3, 8002f9c <ff_wtoupper+0x44>
 8002f70:	4298      	cmp	r0, r3
 8002f72:	d313      	bcc.n	8002f9c <ff_wtoupper+0x44>
 8002f74:	f831 4c02 	ldrh.w	r4, [r1, #-2]
 8002f78:	0a25      	lsrs	r5, r4, #8
 8002f7a:	b2e6      	uxtb	r6, r4
 8002f7c:	fa53 f484 	uxtab	r4, r3, r4
 8002f80:	42a0      	cmp	r0, r4
 8002f82:	da21      	bge.n	8002fc8 <ff_wtoupper+0x70>
 8002f84:	2d08      	cmp	r5, #8
 8002f86:	d809      	bhi.n	8002f9c <ff_wtoupper+0x44>
 8002f88:	e8df f005 	tbb	[pc, r5]
 8002f8c:	110f0905 	.word	0x110f0905
 8002f90:	19171513 	.word	0x19171513
 8002f94:	1b          	.byte	0x1b
 8002f95:	00          	.byte	0x00
 8002f96:	1ac0      	subs	r0, r0, r3
 8002f98:	f831 0010 	ldrh.w	r0, [r1, r0, lsl #1]
 8002f9c:	bd70      	pop	{r4, r5, r6, pc}
 8002f9e:	1ac3      	subs	r3, r0, r3
 8002fa0:	f003 0301 	and.w	r3, r3, #1
 8002fa4:	1ac0      	subs	r0, r0, r3
 8002fa6:	b280      	uxth	r0, r0
 8002fa8:	e7f8      	b.n	8002f9c <ff_wtoupper+0x44>
 8002faa:	3810      	subs	r0, #16
 8002fac:	e7fb      	b.n	8002fa6 <ff_wtoupper+0x4e>
 8002fae:	3820      	subs	r0, #32
 8002fb0:	e7f9      	b.n	8002fa6 <ff_wtoupper+0x4e>
 8002fb2:	3830      	subs	r0, #48	; 0x30
 8002fb4:	e7f7      	b.n	8002fa6 <ff_wtoupper+0x4e>
 8002fb6:	381a      	subs	r0, #26
 8002fb8:	e7f5      	b.n	8002fa6 <ff_wtoupper+0x4e>
 8002fba:	3008      	adds	r0, #8
 8002fbc:	e7f3      	b.n	8002fa6 <ff_wtoupper+0x4e>
 8002fbe:	3850      	subs	r0, #80	; 0x50
 8002fc0:	e7f1      	b.n	8002fa6 <ff_wtoupper+0x4e>
 8002fc2:	f5a0 50e3 	sub.w	r0, r0, #7264	; 0x1c60
 8002fc6:	e7ee      	b.n	8002fa6 <ff_wtoupper+0x4e>
 8002fc8:	3104      	adds	r1, #4
 8002fca:	2d00      	cmp	r5, #0
 8002fcc:	d1cc      	bne.n	8002f68 <ff_wtoupper+0x10>
 8002fce:	eb02 0346 	add.w	r3, r2, r6, lsl #1
 8002fd2:	e7c8      	b.n	8002f66 <ff_wtoupper+0xe>
 8002fd4:	0800321e 	.word	0x0800321e
 8002fd8:	08003410 	.word	0x08003410

08002fdc <__libc_init_array>:
 8002fdc:	b570      	push	{r4, r5, r6, lr}
 8002fde:	4d0d      	ldr	r5, [pc, #52]	; (8003014 <__libc_init_array+0x38>)
 8002fe0:	4c0d      	ldr	r4, [pc, #52]	; (8003018 <__libc_init_array+0x3c>)
 8002fe2:	1b64      	subs	r4, r4, r5
 8002fe4:	10a4      	asrs	r4, r4, #2
 8002fe6:	2600      	movs	r6, #0
 8002fe8:	42a6      	cmp	r6, r4
 8002fea:	d109      	bne.n	8003000 <__libc_init_array+0x24>
 8002fec:	4d0b      	ldr	r5, [pc, #44]	; (800301c <__libc_init_array+0x40>)
 8002fee:	4c0c      	ldr	r4, [pc, #48]	; (8003020 <__libc_init_array+0x44>)
 8002ff0:	f000 f820 	bl	8003034 <_init>
 8002ff4:	1b64      	subs	r4, r4, r5
 8002ff6:	10a4      	asrs	r4, r4, #2
 8002ff8:	2600      	movs	r6, #0
 8002ffa:	42a6      	cmp	r6, r4
 8002ffc:	d105      	bne.n	800300a <__libc_init_array+0x2e>
 8002ffe:	bd70      	pop	{r4, r5, r6, pc}
 8003000:	f855 3b04 	ldr.w	r3, [r5], #4
 8003004:	4798      	blx	r3
 8003006:	3601      	adds	r6, #1
 8003008:	e7ee      	b.n	8002fe8 <__libc_init_array+0xc>
 800300a:	f855 3b04 	ldr.w	r3, [r5], #4
 800300e:	4798      	blx	r3
 8003010:	3601      	adds	r6, #1
 8003012:	e7f2      	b.n	8002ffa <__libc_init_array+0x1e>
 8003014:	080034d4 	.word	0x080034d4
 8003018:	080034d4 	.word	0x080034d4
 800301c:	080034d4 	.word	0x080034d4
 8003020:	080034d8 	.word	0x080034d8

08003024 <memset>:
 8003024:	4402      	add	r2, r0
 8003026:	4603      	mov	r3, r0
 8003028:	4293      	cmp	r3, r2
 800302a:	d100      	bne.n	800302e <memset+0xa>
 800302c:	4770      	bx	lr
 800302e:	f803 1b01 	strb.w	r1, [r3], #1
 8003032:	e7f9      	b.n	8003028 <memset+0x4>

08003034 <_init>:
 8003034:	b5f8      	push	{r3, r4, r5, r6, r7, lr}
 8003036:	bf00      	nop
 8003038:	bcf8      	pop	{r3, r4, r5, r6, r7}
 800303a:	bc08      	pop	{r3}
 800303c:	469e      	mov	lr, r3
 800303e:	4770      	bx	lr

08003040 <_fini>:
 8003040:	b5f8      	push	{r3, r4, r5, r6, r7, lr}
 8003042:	bf00      	nop
 8003044:	bcf8      	pop	{r3, r4, r5, r6, r7}
 8003046:	bc08      	pop	{r3}
 8003048:	469e      	mov	lr, r3
 800304a:	4770      	bx	lr
