
simple_bootloader.elf:     file format elf32-littlearm

Sections:
Idx Name          Size      VMA       LMA       File off  Algn
  0 .isr_vector   00000198  08000000  08000000  00010000  2**0
                  CONTENTS, ALLOC, LOAD, READONLY, DATA
  1 .text         000016ac  08000198  08000198  00010198  2**2
                  CONTENTS, ALLOC, LOAD, READONLY, CODE
  2 .rodata       00000a74  08001844  08001844  00011844  2**2
                  CONTENTS, ALLOC, LOAD, READONLY, DATA
  3 .ARM.extab    00000000  080022b8  080022b8  00020004  2**0
                  CONTENTS
  4 .ARM          00000008  080022b8  080022b8  000122b8  2**2
                  CONTENTS, ALLOC, LOAD, READONLY, DATA
  5 .preinit_array 00000000  080022c0  080022c0  00020004  2**0
                  CONTENTS, ALLOC, LOAD, DATA
  6 .init_array   00000004  080022c0  080022c0  000122c0  2**2
                  CONTENTS, ALLOC, LOAD, DATA
  7 .fini_array   00000004  080022c4  080022c4  000122c4  2**2
                  CONTENTS, ALLOC, LOAD, DATA
  8 .data         00000004  20000000  080022c8  00020000  2**2
                  CONTENTS, ALLOC, LOAD, DATA
  9 .bss          00000624  20000004  080022cc  00020004  2**2
                  ALLOC
 10 ._user_heap_stack 00000600  20000628  080022cc  00020628  2**0
                  ALLOC
 11 .ARM.attributes 00000030  00000000  00000000  00020004  2**0
                  CONTENTS, READONLY
 12 .comment      00000050  00000000  00000000  00020034  2**0
                  CONTENTS, READONLY
 13 .debug_frame  000000d4  00000000  00000000  00020084  2**2
                  CONTENTS, READONLY, DEBUGGING, OCTETS

Disassembly of section .text:

08000198 <__do_global_dtors_aux>:
 8000198:	b510      	push	{r4, lr}
 800019a:	4c05      	ldr	r4, [pc, #20]	; (80001b0 <__do_global_dtors_aux+0x18>)
 800019c:	7823      	ldrb	r3, [r4, #0]
 800019e:	b933      	cbnz	r3, 80001ae <__do_global_dtors_aux+0x16>
 80001a0:	4b04      	ldr	r3, [pc, #16]	; (80001b4 <__do_global_dtors_aux+0x1c>)
 80001a2:	b113      	cbz	r3, 80001aa <__do_global_dtors_aux+0x12>
 80001a4:	4804      	ldr	r0, [pc, #16]	; (80001b8 <__do_global_dtors_aux+0x20>)
 80001a6:	f3af 8000 	nop.w
 80001aa:	2301      	movs	r3, #1
 80001ac:	7023      	strb	r3, [r4, #0]
 80001ae:	bd10      	pop	{r4, pc}
 80001b0:	20000004 	.word	0x20000004
 80001b4:	00000000 	.word	0x00000000
 80001b8:	0800182c 	.word	0x0800182c

080001bc <frame_dummy>:
 80001bc:	b508      	push	{r3, lr}
 80001be:	4b03      	ldr	r3, [pc, #12]	; (80001cc <frame_dummy+0x10>)
 80001c0:	b11b      	cbz	r3, 80001ca <frame_dummy+0xe>
 80001c2:	4903      	ldr	r1, [pc, #12]	; (80001d0 <frame_dummy+0x14>)
 80001c4:	4803      	ldr	r0, [pc, #12]	; (80001d4 <frame_dummy+0x18>)
 80001c6:	f3af 8000 	nop.w
 80001ca:	bd08      	pop	{r3, pc}
 80001cc:	00000000 	.word	0x00000000
 80001d0:	20000008 	.word	0x20000008
 80001d4:	0800182c 	.word	0x0800182c

080001d8 <__aeabi_uldivmod>:
 80001d8:	b953      	cbnz	r3, 80001f0 <__aeabi_uldivmod+0x18>
 80001da:	b94a      	cbnz	r2, 80001f0 <__aeabi_uldivmod+0x18>
 80001dc:	2900      	cmp	r1, #0
 80001de:	bf08      	it	eq
 80001e0:	2800      	cmpeq	r0, #0
 80001e2:	bf1c      	itt	ne
 80001e4:	f04f 31ff 	movne.w	r1, #4294967295	; 0xffffffff
 80001e8:	f04f 30ff 	movne.w	r0, #4294967295	; 0xffffffff
 80001ec:	f000 b974 	b.w	80004d8 <__aeabi_idiv0>
 80001f0:	f1ad 0c08 	sub.w	ip, sp, #8
 80001f4:	e96d ce04 	strd	ip, lr, [sp, #-16]!
 80001f8:	f000 f806 	bl	8000208 <__udivmoddi4>
 80001fc:	f8dd e004 	ldr.w	lr, [sp, #4]
 8000200:	e9dd 2302 	ldrd	r2, r3, [sp, #8]
 8000204:	b004      	add	sp, #16
 8000206:	4770      	bx	lr

08000208 <__udivmoddi4>:
 8000208:	e92d 47f0 	stmdb	sp!, {r4, r5, r6, r7, r8, r9, sl, lr}
 800020c:	9d08      	ldr	r5, [sp, #32]
 800020e:	4604      	mov	r4, r0
 8000210:	468e      	mov	lr, r1
 8000212:	2b00      	cmp	r3, #0
 8000214:	d14d      	bne.n	80002b2 <__udivmoddi4+0xaa>
 8000216:	428a      	cmp	r2, r1
 8000218:	4694      	mov	ip, r2
 800021a:	d969      	bls.n	80002f0 <__udivmoddi4+0xe8>
 800021c:	fab2 f282 	clz	r2, r2
 8000220:	b152      	cbz	r2, 8000238 <__udivmoddi4+0x30>
 8000222:	fa01 f302 	lsl.w	r3, r1, r2
 8000226:	f1c2 0120 	rsb	r1, r2, #32
 800022a:	fa20 f101 	lsr.w	r1, r0, r1
 800022e:	fa0c fc02 	lsl.w	ip, ip, r2
 8000232:	ea41 0e03 	orr.w	lr, r1, r3
 8000236:	4094      	lsls	r4, r2
 8000238:	ea4f 481c 	mov.w	r8, ip, lsr #16
 800023c:	0c21      	lsrs	r1, r4, #16
 800023e:	fbbe f6f8 	udiv	r6, lr, r8
 8000242:	fa1f f78c 	uxth.w	r7, ip
 8000246:	fb08 e316 	mls	r3, r8, r6, lr
 800024a:	ea41 4303 	orr.w	r3, r1, r3, lsl #16
 800024e:	fb06 f107 	mul.w	r1, r6, r7
 8000252:	4299      	cmp	r1, r3
 8000254:	d90a      	bls.n	800026c <__udivmoddi4+0x64>
 8000256:	eb1c 0303 	adds.w	r3, ip, r3
 800025a:	f106 30ff 	add.w	r0, r6, #4294967295	; 0xffffffff
 800025e:	f080 811f 	bcs.w	80004a0 <__udivmoddi4+0x298>
 8000262:	4299      	cmp	r1, r3
 8000264:	f240 811c 	bls.w	80004a0 <__udivmoddi4+0x298>
 8000268:	3e02      	subs	r6, #2
 800026a:	4463      	add	r3, ip
 800026c:	1a5b      	subs	r3, r3, r1
 800026e:	b2a4      	uxth	r4, r4
 8000270:	fbb3 f0f8 	udiv	r0, r3, r8
 8000274:	fb08 3310 	mls	r3, r8, r0, r3
 8000278:	ea44 4403 	orr.w	r4, r4, r3, lsl #16
 800027c:	fb00 f707 	mul.w	r7, r0, r7
 8000280:	42a7      	cmp	r7, r4
 8000282:	d90a      	bls.n	800029a <__udivmoddi4+0x92>
 8000284:	eb1c 0404 	adds.w	r4, ip, r4
 8000288:	f100 33ff 	add.w	r3, r0, #4294967295	; 0xffffffff
 800028c:	f080 810a 	bcs.w	80004a4 <__udivmoddi4+0x29c>
 8000290:	42a7      	cmp	r7, r4
 8000292:	f240 8107 	bls.w	80004a4 <__udivmoddi4+0x29c>
 8000296:	4464      	add	r4, ip
 8000298:	3802      	subs	r0, #2
 800029a:	ea40 4006 	orr.w	r0, r0, r6, lsl #16
 800029e:	1be4      	subs	r4, r4, r7
 80002a0:	2600      	movs	r6, #0
 80002a2:	b11d      	cbz	r5, 80002ac <__udivmoddi4+0xa4>
 80002a4:	40d4      	lsrs	r4, r2
 80002a6:	2300      	movs	r3, #0
 80002a8:	e9c5 4300 	strd	r4, r3, [r5]
 80002ac:	4631      	mov	r1, r6
 80002ae:	e8bd 87f0 	ldmia.w	sp!, {r4, r5, r6, r7, r8, r9, sl, pc}
 80002b2:	428b      	cmp	r3, r1
 80002b4:	d909      	bls.n	80002ca <__udivmoddi4+0xc2>
 80002b6:	2d00      	cmp	r5, #0
 80002b8:	f000 80ef 	beq.w	800049a <__udivmoddi4+0x292>
 80002bc:	2600      	movs	r6, #0
 80002be:	e9c5 0100 	strd	r0, r1, [r5]
 80002c2:	4630      	mov	r0, r6
 80002c4:	4631      	mov	r1, r6
 80002c6:	e8bd 87f0 	ldmia.w	sp!, {r4, r5, r6, r7, r8, r9, sl, pc}
 80002ca:	fab3 f683 	clz	r6, r3
 80002ce:	2e00      	cmp	r6, #0
 80002d0:	d14a      	bne.n	8000368 <__udivmoddi4+0x160>
 80002d2:	428b      	cmp	r3, r1
 80002d4:	d302      	bcc.n	80002dc <__udivmoddi4+0xd4>
 80002d6:	4282      	cmp	r2, r0
 80002d8:	f200 80f9 	bhi.w	80004ce <__udivmoddi4+0x2c6>
 80002dc:	1a84      	subs	r4, r0, r2
 80002de:	eb61 0303 	sbc.w	r3, r1, r3
 80002e2:	2001      	movs	r0, #1
 80002e4:	469e      	mov	lr, r3
 80002e6:	2d00      	cmp	r5, #0
 80002e8:	d0e0      	beq.n	80002ac <__udivmoddi4+0xa4>
 80002ea:	e9c5 4e00 	strd	r4, lr, [r5]
 80002ee:	e7dd      	b.n	80002ac <__udivmoddi4+0xa4>
 80002f0:	b902      	cbnz	r2, 80002f4 <__udivmoddi4+0xec>
 80002f2:	deff      	udf	#255	; 0xff
 80002f4:	fab2 f282 	clz	r2, r2
 80002f8:	2a00      	cmp	r2, #0
 80002fa:	f040 8092 	bne.w	8000422 <__udivmoddi4+0x21a>
 80002fe:	eba1 010c 	sub.w	r1, r1, ip
 8000302:	ea4f 471c 	mov.w	r7, ip, lsr #16
 8000306:	fa1f fe8c 	uxth.w	lr, ip
 800030a:	2601      	movs	r6, #1
 800030c:	0c20      	lsrs	r0, r4, #16
 800030e:	fbb1 f3f7 	udiv	r3, r1, r7
 8000312:	fb07 1113 	mls	r1, r7, r3, r1
 8000316:	ea40 4101 	orr.w	r1, r0, r1, lsl #16
 800031a:	fb0e f003 	mul.w	r0, lr, r3
 800031e:	4288      	cmp	r0, r1
 8000320:	d908      	bls.n	8000334 <__udivmoddi4+0x12c>
 8000322:	eb1c 0101 	adds.w	r1, ip, r1
 8000326:	f103 38ff 	add.w	r8, r3, #4294967295	; 0xffffffff
 800032a:	d202      	bcs.n	8000332 <__udivmoddi4+0x12a>
 800032c:	4288      	cmp	r0, r1
 800032e:	f200 80cb 	bhi.w	80004c8 <__udivmoddi4+0x2c0>
 8000332:	4643      	mov	r3, r8
 8000334:	1a09      	subs	r1, r1, r0
 8000336:	b2a4      	uxth	r4, r4
 8000338:	fbb1 f0f7 	udiv	r0, r1, r7
 800033c:	fb07 1110 	mls	r1, r7, r0, r1
 8000340:	ea44 4401 	orr.w	r4, r4, r1, lsl #16
 8000344:	fb0e fe00 	mul.w	lr, lr, r0
 8000348:	45a6      	cmp	lr, r4
 800034a:	d908      	bls.n	800035e <__udivmoddi4+0x156>
 800034c:	eb1c 0404 	adds.w	r4, ip, r4
 8000350:	f100 31ff 	add.w	r1, r0, #4294967295	; 0xffffffff
 8000354:	d202      	bcs.n	800035c <__udivmoddi4+0x154>
 8000356:	45a6      	cmp	lr, r4
 8000358:	f200 80bb 	bhi.w	80004d2 <__udivmoddi4+0x2ca>
 800035c:	4608      	mov	r0, r1
 800035e:	eba4 040e 	sub.w	r4, r4, lr
 8000362:	ea40 4003 	orr.w	r0, r0, r3, lsl #16
 8000366:	e79c      	b.n	80002a2 <__udivmoddi4+0x9a>
 8000368:	f1c6 0720 	rsb	r7, r6, #32
 800036c:	40b3      	lsls	r3, r6
 800036e:	fa22 fc07 	lsr.w	ip, r2, r7
 8000372:	ea4c 0c03 	orr.w	ip, ip, r3
 8000376:	fa20 f407 	lsr.w	r4, r0, r7
 800037a:	fa01 f306 	lsl.w	r3, r1, r6
 800037e:	431c      	orrs	r4, r3
 8000380:	40f9      	lsrs	r1, r7
 8000382:	ea4f 491c 	mov.w	r9, ip, lsr #16
 8000386:	fa00 f306 	lsl.w	r3, r0, r6
 800038a:	fbb1 f8f9 	udiv	r8, r1, r9
 800038e:	0c20      	lsrs	r0, r4, #16
 8000390:	fa1f fe8c 	uxth.w	lr, ip
 8000394:	fb09 1118 	mls	r1, r9, r8, r1
 8000398:	ea40 4101 	orr.w	r1, r0, r1, lsl #16
 800039c:	fb08 f00e 	mul.w	r0, r8, lr
 80003a0:	4288      	cmp	r0, r1
 80003a2:	fa02 f206 	lsl.w	r2, r2, r6
 80003a6:	d90b      	bls.n	80003c0 <__udivmoddi4+0x1b8>
 80003a8:	eb1c 0101 	adds.w	r1, ip, r1
 80003ac:	f108 3aff 	add.w	sl, r8, #4294967295	; 0xffffffff
 80003b0:	f080 8088 	bcs.w	80004c4 <__udivmoddi4+0x2bc>
 80003b4:	4288      	cmp	r0, r1
 80003b6:	f240 8085 	bls.w	80004c4 <__udivmoddi4+0x2bc>
 80003ba:	f1a8 0802 	sub.w	r8, r8, #2
 80003be:	4461      	add	r1, ip
 80003c0:	1a09      	subs	r1, r1, r0
 80003c2:	b2a4      	uxth	r4, r4
 80003c4:	fbb1 f0f9 	udiv	r0, r1, r9
 80003c8:	fb09 1110 	mls	r1, r9, r0, r1
 80003cc:	ea44 4101 	orr.w	r1, r4, r1, lsl #16
 80003d0:	fb00 fe0e 	mul.w	lr, r0, lr
 80003d4:	458e      	cmp	lr, r1
 80003d6:	d908      	bls.n	80003ea <__udivmoddi4+0x1e2>
 80003d8:	eb1c 0101 	adds.w	r1, ip, r1
 80003dc:	f100 34ff 	add.w	r4, r0, #4294967295	; 0xffffffff
 80003e0:	d26c      	bcs.n	80004bc <__udivmoddi4+0x2b4>
 80003e2:	458e      	cmp	lr, r1
 80003e4:	d96a      	bls.n	80004bc <__udivmoddi4+0x2b4>
 80003e6:	3802      	subs	r0, #2
 80003e8:	4461      	add	r1, ip
 80003ea:	ea40 4008 	orr.w	r0, r0, r8, lsl #16
 80003ee:	fba0 9402 	umull	r9, r4, r0, r2
 80003f2:	eba1 010e 	sub.w	r1, r1, lr
 80003f6:	42a1      	cmp	r1, r4
 80003f8:	46c8      	mov	r8, r9
 80003fa:	46a6      	mov	lr, r4
 80003fc:	d356      	bcc.n	80004ac <__udivmoddi4+0x2a4>
 80003fe:	d053      	beq.n	80004a8 <__udivmoddi4+0x2a0>
 8000400:	b15d      	cbz	r5, 800041a <__udivmoddi4+0x212>
 8000402:	ebb3 0208 	subs.w	r2, r3, r8
 8000406:	eb61 010e 	sbc.w	r1, r1, lr
 800040a:	fa01 f707 	lsl.w	r7, r1, r7
 800040e:	fa22 f306 	lsr.w	r3, r2, r6
 8000412:	40f1      	lsrs	r1, r6
 8000414:	431f      	orrs	r7, r3
 8000416:	e9c5 7100 	strd	r7, r1, [r5]
 800041a:	2600      	movs	r6, #0
 800041c:	4631      	mov	r1, r6
 800041e:	e8bd 87f0 	ldmia.w	sp!, {r4, r5, r6, r7, r8, r9, sl, pc}
 8000422:	f1c2 0320 	rsb	r3, r2, #32
 8000426:	40d8      	lsrs	r0, r3
 8000428:	fa0c fc02 	lsl.w	ip, ip, r2
 800042c:	fa21 f303 	lsr.w	r3, r1, r3
 8000430:	4091      	lsls	r1, r2
 8000432:	4301      	orrs	r1, r0
 8000434:	ea4f 471c 	mov.w	r7, ip, lsr #16
 8000438:	fa1f fe8c 	uxth.w	lr, ip
 800043c:	fbb3 f0f7 	udiv	r0, r3, r7
 8000440:	fb07 3610 	mls	r6, r7, r0, r3
 8000444:	0c0b      	lsrs	r3, r1, #16
 8000446:	ea43 4306 	orr.w	r3, r3, r6, lsl #16
 800044a:	fb00 f60e 	mul.w	r6, r0, lr
 800044e:	429e      	cmp	r6, r3
 8000450:	fa04 f402 	lsl.w	r4, r4, r2
 8000454:	d908      	bls.n	8000468 <__udivmoddi4+0x260>
 8000456:	eb1c 0303 	adds.w	r3, ip, r3
 800045a:	f100 38ff 	add.w	r8, r0, #4294967295	; 0xffffffff
 800045e:	d22f      	bcs.n	80004c0 <__udivmoddi4+0x2b8>
 8000460:	429e      	cmp	r6, r3
 8000462:	d92d      	bls.n	80004c0 <__udivmoddi4+0x2b8>
 8000464:	3802      	subs	r0, #2
 8000466:	4463      	add	r3, ip
 8000468:	1b9b      	subs	r3, r3, r6
 800046a:	b289      	uxth	r1, r1
 800046c:	fbb3 f6f7 	udiv	r6, r3, r7
 8000470:	fb07 3316 	mls	r3, r7, r6, r3
 8000474:	ea41 4103 	orr.w	r1, r1, r3, lsl #16
 8000478:	fb06 f30e 	mul.w	r3, r6, lr
 800047c:	428b      	cmp	r3, r1
 800047e:	d908      	bls.n	8000492 <__udivmoddi4+0x28a>
 8000480:	eb1c 0101 	adds.w	r1, ip, r1
 8000484:	f106 38ff 	add.w	r8, r6, #4294967295	; 0xffffffff
 8000488:	d216      	bcs.n	80004b8 <__udivmoddi4+0x2b0>
 800048a:	428b      	cmp	r3, r1
 800048c:	d914      	bls.n	80004b8 <__udivmoddi4+0x2b0>
 800048e:	3e02      	subs	r6, #2
 8000490:	4461      	add	r1, ip
 8000492:	1ac9      	subs	r1, r1, r3
 8000494:	ea46 4600 	orr.w	r6, r6, r0, lsl #16
 8000498:	e738      	b.n	800030c <__udivmoddi4+0x104>
 800049a:	462e      	mov	r6, r5
 800049c:	4628      	mov	r0, r5
 800049e:	e705      	b.n	80002ac <__udivmoddi4+0xa4>
 80004a0:	4606      	mov	r6, r0
 80004a2:	e6e3      	b.n	800026c <__udivmoddi4+0x64>
 80004a4:	4618      	mov	r0, r3
 80004a6:	e6f8      	b.n	800029a <__udivmoddi4+0x92>
 80004a8:	454b      	cmp	r3, r9
 80004aa:	d2a9      	bcs.n	8000400 <__udivmoddi4+0x1f8>
 80004ac:	ebb9 0802 	subs.w	r8, r9, r2
 80004b0:	eb64 0e0c 	sbc.w	lr, r4, ip
 80004b4:	3801      	subs	r0, #1
 80004b6:	e7a3      	b.n	8000400 <__udivmoddi4+0x1f8>
 80004b8:	4646      	mov	r6, r8
 80004ba:	e7ea      	b.n	8000492 <__udivmoddi4+0x28a>
 80004bc:	4620      	mov	r0, r4
 80004be:	e794      	b.n	80003ea <__udivmoddi4+0x1e2>
 80004c0:	4640      	mov	r0, r8
 80004c2:	e7d1      	b.n	8000468 <__udivmoddi4+0x260>
 80004c4:	46d0      	mov	r8, sl
 80004c6:	e77b      	b.n	80003c0 <__udivmoddi4+0x1b8>
 80004c8:	3b02      	subs	r3, #2
 80004ca:	4461      	add	r1, ip
 80004cc:	e732      	b.n	8000334 <__udivmoddi4+0x12c>
 80004ce:	4630      	mov	r0, r6
 80004d0:	e709      	b.n	80002e6 <__udivmoddi4+0xde>
 80004d2:	4464      	add	r4, ip
 80004d4:	3802      	subs	r0, #2
 80004d6:	e742      	b.n	800035e <__udivmoddi4+0x156>

080004d8 <__aeabi_idiv0>:
 80004d8:	4770      	bx	lr
 80004da:	bf00      	nop

080004dc <jump2app>:
 80004dc:	4b0a      	ldr	r3, [pc, #40]	; (8000508 <jump2app+0x2c>)
 80004de:	b510      	push	{r4, lr}
 80004e0:	4c0a      	ldr	r4, [pc, #40]	; (800050c <jump2app+0x30>)
 80004e2:	2800      	cmp	r0, #0
 80004e4:	bf08      	it	eq
 80004e6:	461c      	moveq	r4, r3
 80004e8:	4b09      	ldr	r3, [pc, #36]	; (8000510 <jump2app+0x34>)
 80004ea:	6822      	ldr	r2, [r4, #0]
 80004ec:	4013      	ands	r3, r2
 80004ee:	4a09      	ldr	r2, [pc, #36]	; (8000514 <jump2app+0x38>)
 80004f0:	4293      	cmp	r3, r2
 80004f2:	d108      	bne.n	8000506 <jump2app+0x2a>
 80004f4:	f000 fe88 	bl	8001208 <peripheral_deinit>
 80004f8:	6863      	ldr	r3, [r4, #4]
 80004fa:	681a      	ldr	r2, [r3, #0]
 80004fc:	f382 8808 	msr	MSP, r2
 8000500:	e8bd 4010 	ldmia.w	sp!, {r4, lr}
 8000504:	4718      	bx	r3
 8000506:	bd10      	pop	{r4, pc}
 8000508:	0800c000 	.word	0x0800c000
 800050c:	08040000 	.word	0x08040000
 8000510:	2ffe0000 	.word	0x2ffe0000
 8000514:	20020000 	.word	0x20020000

08000518 <erase_app>:
 8000518:	b510      	push	{r4, lr}
 800051a:	4604      	mov	r4, r0
 800051c:	f000 f906 	bl	800072c <ll_flash_unlock>
 8000520:	b14c      	cbz	r4, 8000536 <erase_app+0x1e>
 8000522:	2006      	movs	r0, #6
 8000524:	f000 f91a 	bl	800075c <ll_flash_erase>
 8000528:	2007      	movs	r0, #7
 800052a:	f000 f917 	bl	800075c <ll_flash_erase>
 800052e:	e8bd 4010 	ldmia.w	sp!, {r4, lr}
 8000532:	f000 b909 	b.w	8000748 <ll_flash_lock>
 8000536:	2004      	movs	r0, #4
 8000538:	f000 f910 	bl	800075c <ll_flash_erase>
 800053c:	2003      	movs	r0, #3
 800053e:	f000 f90d 	bl	800075c <ll_flash_erase>
 8000542:	2005      	movs	r0, #5
 8000544:	e7f1      	b.n	800052a <erase_app+0x12>
	...

08000548 <handle_ftp>:
 8000548:	b570      	push	{r4, r5, r6, lr}
 800054a:	4d52      	ldr	r5, [pc, #328]	; (8000694 <handle_ftp+0x14c>)
 800054c:	4604      	mov	r4, r0
 800054e:	4852      	ldr	r0, [pc, #328]	; (8000698 <handle_ftp+0x150>)
 8000550:	682a      	ldr	r2, [r5, #0]
 8000552:	6803      	ldr	r3, [r0, #0]
 8000554:	f894 1338 	ldrb.w	r1, [r4, #824]	; 0x338
 8000558:	3301      	adds	r3, #1
 800055a:	3201      	adds	r2, #1
 800055c:	6003      	str	r3, [r0, #0]
 800055e:	602a      	str	r2, [r5, #0]
 8000560:	2903      	cmp	r1, #3
 8000562:	d813      	bhi.n	800058c <handle_ftp+0x44>
 8000564:	e8df f001 	tbb	[pc, r1]
 8000568:	89832c02 	.word	0x89832c02
 800056c:	f894 645b 	ldrb.w	r6, [r4, #1115]	; 0x45b
 8000570:	2e01      	cmp	r6, #1
 8000572:	d10e      	bne.n	8000592 <handle_ftp+0x4a>
 8000574:	f894 045e 	ldrb.w	r0, [r4, #1118]	; 0x45e
 8000578:	f7ff ffce 	bl	8000518 <erase_app>
 800057c:	2300      	movs	r3, #0
 800057e:	4631      	mov	r1, r6
 8000580:	4620      	mov	r0, r4
 8000582:	602b      	str	r3, [r5, #0]
 8000584:	f000 fcf4 	bl	8000f70 <mavlink_ftp_send>
 8000588:	f884 6338 	strb.w	r6, [r4, #824]	; 0x338
 800058c:	f04f 30ff 	mov.w	r0, #4294967295	; 0xffffffff
 8000590:	e072      	b.n	8000678 <handle_ftp+0x130>
 8000592:	f241 3188 	movw	r1, #5000	; 0x1388
 8000596:	428a      	cmp	r2, r1
 8000598:	bf84      	itt	hi
 800059a:	2203      	movhi	r2, #3
 800059c:	f884 2338 	strbhi.w	r2, [r4, #824]	; 0x338
 80005a0:	f5b3 7f7a 	cmp.w	r3, #1000	; 0x3e8
 80005a4:	d9f2      	bls.n	800058c <handle_ftp+0x44>
 80005a6:	493d      	ldr	r1, [pc, #244]	; (800069c <handle_ftp+0x154>)
 80005a8:	694b      	ldr	r3, [r1, #20]
 80005aa:	041a      	lsls	r2, r3, #16
 80005ac:	43db      	mvns	r3, r3
 80005ae:	f402 1200 	and.w	r2, r2, #2097152	; 0x200000
 80005b2:	f003 0320 	and.w	r3, r3, #32
 80005b6:	4313      	orrs	r3, r2
 80005b8:	618b      	str	r3, [r1, #24]
 80005ba:	2300      	movs	r3, #0
 80005bc:	6003      	str	r3, [r0, #0]
 80005be:	e7e5      	b.n	800058c <handle_ftp+0x44>
 80005c0:	f894 145b 	ldrb.w	r1, [r4, #1115]	; 0x45b
 80005c4:	b911      	cbnz	r1, 80005cc <handle_ftp+0x84>
 80005c6:	2102      	movs	r1, #2
 80005c8:	f884 1338 	strb.w	r1, [r4, #824]	; 0x338
 80005cc:	f894 145d 	ldrb.w	r1, [r4, #1117]	; 0x45d
 80005d0:	b139      	cbz	r1, 80005e2 <handle_ftp+0x9a>
 80005d2:	2100      	movs	r1, #0
 80005d4:	4620      	mov	r0, r4
 80005d6:	f000 fccb 	bl	8000f70 <mavlink_ftp_send>
 80005da:	2303      	movs	r3, #3
 80005dc:	f884 3338 	strb.w	r3, [r4, #824]	; 0x338
 80005e0:	e7d4      	b.n	800058c <handle_ftp+0x44>
 80005e2:	f894 645c 	ldrb.w	r6, [r4, #1116]	; 0x45c
 80005e6:	2e01      	cmp	r6, #1
 80005e8:	d12e      	bne.n	8000648 <handle_ftp+0x100>
 80005ea:	6029      	str	r1, [r5, #0]
 80005ec:	f000 f89e 	bl	800072c <ll_flash_unlock>
 80005f0:	f894 345e 	ldrb.w	r3, [r4, #1118]	; 0x45e
 80005f4:	2b01      	cmp	r3, #1
 80005f6:	f204 164b 	addw	r6, r4, #331	; 0x14b
 80005fa:	d117      	bne.n	800062c <handle_ftp+0xe4>
 80005fc:	f8d4 0454 	ldr.w	r0, [r4, #1108]	; 0x454
 8000600:	f894 2143 	ldrb.w	r2, [r4, #323]	; 0x143
 8000604:	f100 6000 	add.w	r0, r0, #134217728	; 0x8000000
 8000608:	4631      	mov	r1, r6
 800060a:	f500 2080 	add.w	r0, r0, #262144	; 0x40000
 800060e:	f000 f8c1 	bl	8000794 <ll_flash_write>
 8000612:	2800      	cmp	r0, #0
 8000614:	dbf2      	blt.n	80005fc <handle_ftp+0xb4>
 8000616:	f000 f897 	bl	8000748 <ll_flash_lock>
 800061a:	2600      	movs	r6, #0
 800061c:	2101      	movs	r1, #1
 800061e:	4620      	mov	r0, r4
 8000620:	602e      	str	r6, [r5, #0]
 8000622:	f000 fca5 	bl	8000f70 <mavlink_ftp_send>
 8000626:	f884 645c 	strb.w	r6, [r4, #1116]	; 0x45c
 800062a:	e7af      	b.n	800058c <handle_ftp+0x44>
 800062c:	f8d4 0454 	ldr.w	r0, [r4, #1108]	; 0x454
 8000630:	f894 2143 	ldrb.w	r2, [r4, #323]	; 0x143
 8000634:	f100 6000 	add.w	r0, r0, #134217728	; 0x8000000
 8000638:	4631      	mov	r1, r6
 800063a:	f500 4040 	add.w	r0, r0, #49152	; 0xc000
 800063e:	f000 f8a9 	bl	8000794 <ll_flash_write>
 8000642:	2800      	cmp	r0, #0
 8000644:	dbf2      	blt.n	800062c <handle_ftp+0xe4>
 8000646:	e7e6      	b.n	8000616 <handle_ftp+0xce>
 8000648:	f241 3588 	movw	r5, #5000	; 0x1388
 800064c:	42aa      	cmp	r2, r5
 800064e:	d8c4      	bhi.n	80005da <handle_ftp+0x92>
 8000650:	f5b3 7ffa 	cmp.w	r3, #500	; 0x1f4
 8000654:	d99a      	bls.n	800058c <handle_ftp+0x44>
 8000656:	4c11      	ldr	r4, [pc, #68]	; (800069c <handle_ftp+0x154>)
 8000658:	6963      	ldr	r3, [r4, #20]
 800065a:	041a      	lsls	r2, r3, #16
 800065c:	43db      	mvns	r3, r3
 800065e:	f402 1200 	and.w	r2, r2, #2097152	; 0x200000
 8000662:	f003 0320 	and.w	r3, r3, #32
 8000666:	4313      	orrs	r3, r2
 8000668:	61a3      	str	r3, [r4, #24]
 800066a:	6001      	str	r1, [r0, #0]
 800066c:	e78e      	b.n	800058c <handle_ftp+0x44>
 800066e:	2101      	movs	r1, #1
 8000670:	4620      	mov	r0, r4
 8000672:	f000 fc7d 	bl	8000f70 <mavlink_ftp_send>
 8000676:	2000      	movs	r0, #0
 8000678:	bd70      	pop	{r4, r5, r6, pc}
 800067a:	2100      	movs	r1, #0
 800067c:	4620      	mov	r0, r4
 800067e:	f000 fc77 	bl	8000f70 <mavlink_ftp_send>
 8000682:	f894 045b 	ldrb.w	r0, [r4, #1115]	; 0x45b
 8000686:	2800      	cmp	r0, #0
 8000688:	d0f6      	beq.n	8000678 <handle_ftp+0x130>
 800068a:	f894 045e 	ldrb.w	r0, [r4, #1118]	; 0x45e
 800068e:	f7ff ff43 	bl	8000518 <erase_app>
 8000692:	e7f0      	b.n	8000676 <handle_ftp+0x12e>
 8000694:	20000024 	.word	0x20000024
 8000698:	20000020 	.word	0x20000020
 800069c:	40020000 	.word	0x40020000

080006a0 <bootloader_mainloop>:
 80006a0:	b5f0      	push	{r4, r5, r6, r7, lr}
 80006a2:	f04f 22e0 	mov.w	r2, #3758153728	; 0xe000e000
 80006a6:	f2ad 4d64 	subw	sp, sp, #1124	; 0x464
 80006aa:	6913      	ldr	r3, [r2, #16]
 80006ac:	f043 0302 	orr.w	r3, r3, #2
 80006b0:	6113      	str	r3, [r2, #16]
 80006b2:	f000 f8bb 	bl	800082c <usart_init>
 80006b6:	4668      	mov	r0, sp
 80006b8:	f000 fa3a 	bl	8000b30 <mavlink_init>
 80006bc:	f000 f89a 	bl	80007f4 <usart_available>
 80006c0:	b128      	cbz	r0, 80006ce <bootloader_mainloop+0x2e>
 80006c2:	f000 f8a3 	bl	800080c <usart_read>
 80006c6:	4601      	mov	r1, r0
 80006c8:	4668      	mov	r0, sp
 80006ca:	f000 faa3 	bl	8000c14 <mavlink_receive>
 80006ce:	4668      	mov	r0, sp
 80006d0:	f7ff ff3a 	bl	8000548 <handle_ftp>
 80006d4:	b118      	cbz	r0, 80006de <bootloader_mainloop+0x3e>
 80006d6:	2001      	movs	r0, #1
 80006d8:	f000 fd86 	bl	80011e8 <delay_ms>
 80006dc:	e7ee      	b.n	80006bc <bootloader_mainloop+0x1c>
 80006de:	f000 fd8d 	bl	80011fc <get_systick>
 80006e2:	4d10      	ldr	r5, [pc, #64]	; (8000724 <bootloader_mainloop+0x84>)
 80006e4:	4f10      	ldr	r7, [pc, #64]	; (8000728 <bootloader_mainloop+0x88>)
 80006e6:	4604      	mov	r4, r0
 80006e8:	f640 36b8 	movw	r6, #3000	; 0xbb8
 80006ec:	696b      	ldr	r3, [r5, #20]
 80006ee:	041a      	lsls	r2, r3, #16
 80006f0:	43db      	mvns	r3, r3
 80006f2:	f402 1200 	and.w	r2, r2, #2097152	; 0x200000
 80006f6:	f003 0320 	and.w	r3, r3, #32
 80006fa:	4313      	orrs	r3, r2
 80006fc:	61ab      	str	r3, [r5, #24]
 80006fe:	f000 fd7d 	bl	80011fc <get_systick>
 8000702:	1b00      	subs	r0, r0, r4
 8000704:	42b0      	cmp	r0, r6
 8000706:	d908      	bls.n	800071a <bootloader_mainloop+0x7a>
 8000708:	6938      	ldr	r0, [r7, #16]
 800070a:	f410 5000 	ands.w	r0, r0, #8192	; 0x2000
 800070e:	d101      	bne.n	8000714 <bootloader_mainloop+0x74>
 8000710:	f7ff fee4 	bl	80004dc <jump2app>
 8000714:	2001      	movs	r0, #1
 8000716:	f7ff fee1 	bl	80004dc <jump2app>
 800071a:	20c8      	movs	r0, #200	; 0xc8
 800071c:	f000 fd64 	bl	80011e8 <delay_ms>
 8000720:	e7e4      	b.n	80006ec <bootloader_mainloop+0x4c>
 8000722:	bf00      	nop
 8000724:	40020000 	.word	0x40020000
 8000728:	40020800 	.word	0x40020800

0800072c <ll_flash_unlock>:
 800072c:	4b04      	ldr	r3, [pc, #16]	; (8000740 <ll_flash_unlock+0x14>)
 800072e:	4a05      	ldr	r2, [pc, #20]	; (8000744 <ll_flash_unlock+0x18>)
 8000730:	605a      	str	r2, [r3, #4]
 8000732:	f102 3288 	add.w	r2, r2, #2290649224	; 0x88888888
 8000736:	605a      	str	r2, [r3, #4]
 8000738:	6918      	ldr	r0, [r3, #16]
 800073a:	17c0      	asrs	r0, r0, #31
 800073c:	4770      	bx	lr
 800073e:	bf00      	nop
 8000740:	40023c00 	.word	0x40023c00
 8000744:	45670123 	.word	0x45670123

08000748 <ll_flash_lock>:
 8000748:	4a03      	ldr	r2, [pc, #12]	; (8000758 <ll_flash_lock+0x10>)
 800074a:	6913      	ldr	r3, [r2, #16]
 800074c:	f043 4300 	orr.w	r3, r3, #2147483648	; 0x80000000
 8000750:	6113      	str	r3, [r2, #16]
 8000752:	2000      	movs	r0, #0
 8000754:	4770      	bx	lr
 8000756:	bf00      	nop
 8000758:	40023c00 	.word	0x40023c00

0800075c <ll_flash_erase>:
 800075c:	4b0c      	ldr	r3, [pc, #48]	; (8000790 <ll_flash_erase+0x34>)
 800075e:	68da      	ldr	r2, [r3, #12]
 8000760:	6919      	ldr	r1, [r3, #16]
 8000762:	f421 7140 	bic.w	r1, r1, #768	; 0x300
 8000766:	6119      	str	r1, [r3, #16]
 8000768:	691a      	ldr	r2, [r3, #16]
 800076a:	611a      	str	r2, [r3, #16]
 800076c:	691a      	ldr	r2, [r3, #16]
 800076e:	ea42 00c0 	orr.w	r0, r2, r0, lsl #3
 8000772:	f040 0002 	orr.w	r0, r0, #2
 8000776:	6118      	str	r0, [r3, #16]
 8000778:	691a      	ldr	r2, [r3, #16]
 800077a:	f442 3280 	orr.w	r2, r2, #65536	; 0x10000
 800077e:	611a      	str	r2, [r3, #16]
 8000780:	68da      	ldr	r2, [r3, #12]
 8000782:	691a      	ldr	r2, [r3, #16]
 8000784:	f022 0202 	bic.w	r2, r2, #2
 8000788:	611a      	str	r2, [r3, #16]
 800078a:	2001      	movs	r0, #1
 800078c:	4770      	bx	lr
 800078e:	bf00      	nop
 8000790:	40023c00 	.word	0x40023c00

08000794 <ll_flash_write>:
 8000794:	4b0d      	ldr	r3, [pc, #52]	; (80007cc <ll_flash_write+0x38>)
 8000796:	b530      	push	{r4, r5, lr}
 8000798:	68dc      	ldr	r4, [r3, #12]
 800079a:	691c      	ldr	r4, [r3, #16]
 800079c:	f424 7440 	bic.w	r4, r4, #768	; 0x300
 80007a0:	611c      	str	r4, [r3, #16]
 80007a2:	691c      	ldr	r4, [r3, #16]
 80007a4:	611c      	str	r4, [r3, #16]
 80007a6:	691c      	ldr	r4, [r3, #16]
 80007a8:	f044 0401 	orr.w	r4, r4, #1
 80007ac:	611c      	str	r4, [r3, #16]
 80007ae:	2400      	movs	r4, #0
 80007b0:	b2a5      	uxth	r5, r4
 80007b2:	42aa      	cmp	r2, r5
 80007b4:	d805      	bhi.n	80007c2 <ll_flash_write+0x2e>
 80007b6:	691a      	ldr	r2, [r3, #16]
 80007b8:	f022 0201 	bic.w	r2, r2, #1
 80007bc:	611a      	str	r2, [r3, #16]
 80007be:	2000      	movs	r0, #0
 80007c0:	bd30      	pop	{r4, r5, pc}
 80007c2:	5d0d      	ldrb	r5, [r1, r4]
 80007c4:	5505      	strb	r5, [r0, r4]
 80007c6:	3401      	adds	r4, #1
 80007c8:	68dd      	ldr	r5, [r3, #12]
 80007ca:	e7f1      	b.n	80007b0 <ll_flash_write+0x1c>
 80007cc:	40023c00 	.word	0x40023c00

080007d0 <USART2_IRQHandler>:
 80007d0:	4b06      	ldr	r3, [pc, #24]	; (80007ec <USART2_IRQHandler+0x1c>)
 80007d2:	681a      	ldr	r2, [r3, #0]
 80007d4:	68d9      	ldr	r1, [r3, #12]
 80007d6:	0689      	lsls	r1, r1, #26
 80007d8:	d506      	bpl.n	80007e8 <USART2_IRQHandler+0x18>
 80007da:	0692      	lsls	r2, r2, #26
 80007dc:	d504      	bpl.n	80007e8 <USART2_IRQHandler+0x18>
 80007de:	6859      	ldr	r1, [r3, #4]
 80007e0:	4803      	ldr	r0, [pc, #12]	; (80007f0 <USART2_IRQHandler+0x20>)
 80007e2:	b2c9      	uxtb	r1, r1
 80007e4:	f000 bd48 	b.w	8001278 <RINGBUF_Put>
 80007e8:	4770      	bx	lr
 80007ea:	bf00      	nop
 80007ec:	40004400 	.word	0x40004400
 80007f0:	20000128 	.word	0x20000128

080007f4 <usart_available>:
 80007f4:	b508      	push	{r3, lr}
 80007f6:	4804      	ldr	r0, [pc, #16]	; (8000808 <usart_available+0x14>)
 80007f8:	f000 fd68 	bl	80012cc <RINGBUF_GetFill>
 80007fc:	2800      	cmp	r0, #0
 80007fe:	bfd4      	ite	le
 8000800:	2000      	movle	r0, #0
 8000802:	2001      	movgt	r0, #1
 8000804:	bd08      	pop	{r3, pc}
 8000806:	bf00      	nop
 8000808:	20000128 	.word	0x20000128

0800080c <usart_read>:
 800080c:	b507      	push	{r0, r1, r2, lr}
 800080e:	2300      	movs	r3, #0
 8000810:	f10d 0107 	add.w	r1, sp, #7
 8000814:	4804      	ldr	r0, [pc, #16]	; (8000828 <usart_read+0x1c>)
 8000816:	f88d 3007 	strb.w	r3, [sp, #7]
 800081a:	f000 fd40 	bl	800129e <RINGBUF_Get>
 800081e:	f89d 0007 	ldrb.w	r0, [sp, #7]
 8000822:	b003      	add	sp, #12
 8000824:	f85d fb04 	ldr.w	pc, [sp], #4
 8000828:	20000128 	.word	0x20000128

0800082c <usart_init>:
 800082c:	f44f 7280 	mov.w	r2, #256	; 0x100
 8000830:	b508      	push	{r3, lr}
 8000832:	4907      	ldr	r1, [pc, #28]	; (8000850 <usart_init+0x24>)
 8000834:	4807      	ldr	r0, [pc, #28]	; (8000854 <usart_init+0x28>)
 8000836:	f000 fd11 	bl	800125c <RINGBUF_Init>
 800083a:	4a07      	ldr	r2, [pc, #28]	; (8000858 <usart_init+0x2c>)
 800083c:	e852 3f00 	ldrex	r3, [r2]
 8000840:	f043 0320 	orr.w	r3, r3, #32
 8000844:	e842 3100 	strex	r1, r3, [r2]
 8000848:	2900      	cmp	r1, #0
 800084a:	d1f7      	bne.n	800083c <usart_init+0x10>
 800084c:	2001      	movs	r0, #1
 800084e:	bd08      	pop	{r3, pc}
 8000850:	20000028 	.word	0x20000028
 8000854:	20000128 	.word	0x20000128
 8000858:	4000440c 	.word	0x4000440c

0800085c <LL_AHB1_GRP1_EnableClock>:
 800085c:	4b05      	ldr	r3, [pc, #20]	; (8000874 <LL_AHB1_GRP1_EnableClock+0x18>)
 800085e:	6b1a      	ldr	r2, [r3, #48]	; 0x30
 8000860:	4302      	orrs	r2, r0
 8000862:	631a      	str	r2, [r3, #48]	; 0x30
 8000864:	6b1b      	ldr	r3, [r3, #48]	; 0x30
 8000866:	b082      	sub	sp, #8
 8000868:	4018      	ands	r0, r3
 800086a:	9001      	str	r0, [sp, #4]
 800086c:	9b01      	ldr	r3, [sp, #4]
 800086e:	b002      	add	sp, #8
 8000870:	4770      	bx	lr
 8000872:	bf00      	nop
 8000874:	40023800 	.word	0x40023800

08000878 <SystemClock_Config>:
 8000878:	4a2e      	ldr	r2, [pc, #184]	; (8000934 <SystemClock_Config+0xbc>)
 800087a:	6813      	ldr	r3, [r2, #0]
 800087c:	f023 0307 	bic.w	r3, r3, #7
 8000880:	f043 0302 	orr.w	r3, r3, #2
 8000884:	b510      	push	{r4, lr}
 8000886:	6013      	str	r3, [r2, #0]
 8000888:	6813      	ldr	r3, [r2, #0]
 800088a:	f003 0307 	and.w	r3, r3, #7
 800088e:	2b02      	cmp	r3, #2
 8000890:	d1fa      	bne.n	8000888 <SystemClock_Config+0x10>
 8000892:	4a29      	ldr	r2, [pc, #164]	; (8000938 <SystemClock_Config+0xc0>)
 8000894:	6813      	ldr	r3, [r2, #0]
 8000896:	f443 4340 	orr.w	r3, r3, #49152	; 0xc000
 800089a:	6013      	str	r3, [r2, #0]
 800089c:	4b27      	ldr	r3, [pc, #156]	; (800093c <SystemClock_Config+0xc4>)
 800089e:	681a      	ldr	r2, [r3, #0]
 80008a0:	f022 02f8 	bic.w	r2, r2, #248	; 0xf8
 80008a4:	f042 0280 	orr.w	r2, r2, #128	; 0x80
 80008a8:	601a      	str	r2, [r3, #0]
 80008aa:	681a      	ldr	r2, [r3, #0]
 80008ac:	f042 0201 	orr.w	r2, r2, #1
 80008b0:	601a      	str	r2, [r3, #0]
 80008b2:	681a      	ldr	r2, [r3, #0]
 80008b4:	0791      	lsls	r1, r2, #30
 80008b6:	d5fc      	bpl.n	80008b2 <SystemClock_Config+0x3a>
 80008b8:	6859      	ldr	r1, [r3, #4]
 80008ba:	4a21      	ldr	r2, [pc, #132]	; (8000940 <SystemClock_Config+0xc8>)
 80008bc:	400a      	ands	r2, r1
 80008be:	f442 42a8 	orr.w	r2, r2, #21504	; 0x5400
 80008c2:	f042 0210 	orr.w	r2, r2, #16
 80008c6:	605a      	str	r2, [r3, #4]
 80008c8:	685a      	ldr	r2, [r3, #4]
 80008ca:	f422 3240 	bic.w	r2, r2, #196608	; 0x30000
 80008ce:	f442 3280 	orr.w	r2, r2, #65536	; 0x10000
 80008d2:	605a      	str	r2, [r3, #4]
 80008d4:	681a      	ldr	r2, [r3, #0]
 80008d6:	f042 7280 	orr.w	r2, r2, #16777216	; 0x1000000
 80008da:	601a      	str	r2, [r3, #0]
 80008dc:	4b17      	ldr	r3, [pc, #92]	; (800093c <SystemClock_Config+0xc4>)
 80008de:	681a      	ldr	r2, [r3, #0]
 80008e0:	0192      	lsls	r2, r2, #6
 80008e2:	d5fc      	bpl.n	80008de <SystemClock_Config+0x66>
 80008e4:	689a      	ldr	r2, [r3, #8]
 80008e6:	4c15      	ldr	r4, [pc, #84]	; (800093c <SystemClock_Config+0xc4>)
 80008e8:	f022 02f0 	bic.w	r2, r2, #240	; 0xf0
 80008ec:	609a      	str	r2, [r3, #8]
 80008ee:	689a      	ldr	r2, [r3, #8]
 80008f0:	f422 52e0 	bic.w	r2, r2, #7168	; 0x1c00
 80008f4:	f442 5280 	orr.w	r2, r2, #4096	; 0x1000
 80008f8:	609a      	str	r2, [r3, #8]
 80008fa:	689a      	ldr	r2, [r3, #8]
 80008fc:	f422 4260 	bic.w	r2, r2, #57344	; 0xe000
 8000900:	609a      	str	r2, [r3, #8]
 8000902:	689a      	ldr	r2, [r3, #8]
 8000904:	f022 0203 	bic.w	r2, r2, #3
 8000908:	f042 0202 	orr.w	r2, r2, #2
 800090c:	609a      	str	r2, [r3, #8]
 800090e:	68a3      	ldr	r3, [r4, #8]
 8000910:	f003 030c 	and.w	r3, r3, #12
 8000914:	2b08      	cmp	r3, #8
 8000916:	d1fa      	bne.n	800090e <SystemClock_Config+0x96>
 8000918:	480a      	ldr	r0, [pc, #40]	; (8000944 <SystemClock_Config+0xcc>)
 800091a:	f000 ff39 	bl	8001790 <LL_Init1msTick>
 800091e:	4809      	ldr	r0, [pc, #36]	; (8000944 <SystemClock_Config+0xcc>)
 8000920:	f000 ff44 	bl	80017ac <LL_SetSystemCoreClock>
 8000924:	f8d4 308c 	ldr.w	r3, [r4, #140]	; 0x8c
 8000928:	f023 7380 	bic.w	r3, r3, #16777216	; 0x1000000
 800092c:	f8c4 308c 	str.w	r3, [r4, #140]	; 0x8c
 8000930:	bd10      	pop	{r4, pc}
 8000932:	bf00      	nop
 8000934:	40023c00 	.word	0x40023c00
 8000938:	40007000 	.word	0x40007000
 800093c:	40023800 	.word	0x40023800
 8000940:	ffbf8000 	.word	0xffbf8000
 8000944:	0501bd00 	.word	0x0501bd00

08000948 <main>:
 8000948:	4d61      	ldr	r5, [pc, #388]	; (8000ad0 <main+0x188>)
 800094a:	f8df 81a0 	ldr.w	r8, [pc, #416]	; 8000aec <main+0x1a4>
 800094e:	6c6b      	ldr	r3, [r5, #68]	; 0x44
 8000950:	e92d 4880 	stmdb	sp!, {r7, fp, lr}
 8000954:	f443 4380 	orr.w	r3, r3, #16384	; 0x4000
 8000958:	646b      	str	r3, [r5, #68]	; 0x44
 800095a:	6c6b      	ldr	r3, [r5, #68]	; 0x44
 800095c:	4f5d      	ldr	r7, [pc, #372]	; (8000ad4 <main+0x18c>)
 800095e:	b091      	sub	sp, #68	; 0x44
 8000960:	f403 4380 	and.w	r3, r3, #16384	; 0x4000
 8000964:	9301      	str	r3, [sp, #4]
 8000966:	9b01      	ldr	r3, [sp, #4]
 8000968:	6c2b      	ldr	r3, [r5, #64]	; 0x40
 800096a:	f043 5380 	orr.w	r3, r3, #268435456	; 0x10000000
 800096e:	642b      	str	r3, [r5, #64]	; 0x40
 8000970:	6c2b      	ldr	r3, [r5, #64]	; 0x40
 8000972:	f003 5380 	and.w	r3, r3, #268435456	; 0x10000000
 8000976:	9300      	str	r3, [sp, #0]
 8000978:	9b00      	ldr	r3, [sp, #0]
 800097a:	68fa      	ldr	r2, [r7, #12]
 800097c:	4b56      	ldr	r3, [pc, #344]	; (8000ad8 <main+0x190>)
 800097e:	f422 62e0 	bic.w	r2, r2, #1792	; 0x700
 8000982:	0412      	lsls	r2, r2, #16
 8000984:	0c12      	lsrs	r2, r2, #16
 8000986:	4313      	orrs	r3, r2
 8000988:	60fb      	str	r3, [r7, #12]
 800098a:	2400      	movs	r4, #0
 800098c:	f7ff ff74 	bl	8000878 <SystemClock_Config>
 8000990:	2218      	movs	r2, #24
 8000992:	4621      	mov	r1, r4
 8000994:	a809      	add	r0, sp, #36	; 0x24
 8000996:	e9cd 4403 	strd	r4, r4, [sp, #12]
 800099a:	f000 ff3f 	bl	800181c <memset>
 800099e:	2004      	movs	r0, #4
 80009a0:	f7ff ff5c 	bl	800085c <LL_AHB1_GRP1_EnableClock>
 80009a4:	2080      	movs	r0, #128	; 0x80
 80009a6:	f7ff ff59 	bl	800085c <LL_AHB1_GRP1_EnableClock>
 80009aa:	2001      	movs	r0, #1
 80009ac:	f7ff ff56 	bl	800085c <LL_AHB1_GRP1_EnableClock>
 80009b0:	2002      	movs	r0, #2
 80009b2:	f7ff ff53 	bl	800085c <LL_AHB1_GRP1_EnableClock>
 80009b6:	4949      	ldr	r1, [pc, #292]	; (8000adc <main+0x194>)
 80009b8:	f44f 1300 	mov.w	r3, #2097152	; 0x200000
 80009bc:	f8c8 3018 	str.w	r3, [r8, #24]
 80009c0:	694a      	ldr	r2, [r1, #20]
 80009c2:	23f0      	movs	r3, #240	; 0xf0
 80009c4:	fa93 f3a3 	rbit	r3, r3
 80009c8:	f04f 0a02 	mov.w	sl, #2
 80009cc:	fab3 f383 	clz	r3, r3
 80009d0:	f022 02f0 	bic.w	r2, r2, #240	; 0xf0
 80009d4:	fa0a f303 	lsl.w	r3, sl, r3
 80009d8:	4313      	orrs	r3, r2
 80009da:	614b      	str	r3, [r1, #20]
 80009dc:	f44f 5b00 	mov.w	fp, #8192	; 0x2000
 80009e0:	2601      	movs	r6, #1
 80009e2:	a803      	add	r0, sp, #12
 80009e4:	f8cd b00c 	str.w	fp, [sp, #12]
 80009e8:	f8ad 6010 	strh.w	r6, [sp, #16]
 80009ec:	f88d a012 	strb.w	sl, [sp, #18]
 80009f0:	f000 fcb6 	bl	8001360 <LL_EXTI_Init>
 80009f4:	4a3a      	ldr	r2, [pc, #232]	; (8000ae0 <main+0x198>)
 80009f6:	68d1      	ldr	r1, [r2, #12]
 80009f8:	fa9b f3ab 	rbit	r3, fp
 80009fc:	fab3 f383 	clz	r3, r3
 8000a00:	40b3      	lsls	r3, r6
 8000a02:	f04f 0903 	mov.w	r9, #3
 8000a06:	fa09 f303 	lsl.w	r3, r9, r3
 8000a0a:	ea21 0303 	bic.w	r3, r1, r3
 8000a0e:	fa9b f1ab 	rbit	r1, fp
 8000a12:	60d3      	str	r3, [r2, #12]
 8000a14:	6811      	ldr	r1, [r2, #0]
 8000a16:	fa9b f3ab 	rbit	r3, fp
 8000a1a:	fab3 f383 	clz	r3, r3
 8000a1e:	40b3      	lsls	r3, r6
 8000a20:	fa09 f303 	lsl.w	r3, r9, r3
 8000a24:	ea21 0303 	bic.w	r3, r1, r3
 8000a28:	fa9b fbab 	rbit	fp, fp
 8000a2c:	6013      	str	r3, [r2, #0]
 8000a2e:	a909      	add	r1, sp, #36	; 0x24
 8000a30:	2320      	movs	r3, #32
 8000a32:	4640      	mov	r0, r8
 8000a34:	e9cd 3609 	strd	r3, r6, [sp, #36]	; 0x24
 8000a38:	e9cd 440b 	strd	r4, r4, [sp, #44]	; 0x2c
 8000a3c:	940d      	str	r4, [sp, #52]	; 0x34
 8000a3e:	f000 fce3 	bl	8001408 <LL_GPIO_Init>
 8000a42:	4621      	mov	r1, r4
 8000a44:	221c      	movs	r2, #28
 8000a46:	a809      	add	r0, sp, #36	; 0x24
 8000a48:	f000 fee8 	bl	800181c <memset>
 8000a4c:	2218      	movs	r2, #24
 8000a4e:	4621      	mov	r1, r4
 8000a50:	a803      	add	r0, sp, #12
 8000a52:	f000 fee3 	bl	800181c <memset>
 8000a56:	6c2b      	ldr	r3, [r5, #64]	; 0x40
 8000a58:	f443 3300 	orr.w	r3, r3, #131072	; 0x20000
 8000a5c:	642b      	str	r3, [r5, #64]	; 0x40
 8000a5e:	6c2b      	ldr	r3, [r5, #64]	; 0x40
 8000a60:	f403 3300 	and.w	r3, r3, #131072	; 0x20000
 8000a64:	250c      	movs	r5, #12
 8000a66:	9302      	str	r3, [sp, #8]
 8000a68:	4630      	mov	r0, r6
 8000a6a:	9b02      	ldr	r3, [sp, #8]
 8000a6c:	eb0d 0105 	add.w	r1, sp, r5
 8000a70:	f7ff fef4 	bl	800085c <LL_AHB1_GRP1_EnableClock>
 8000a74:	2307      	movs	r3, #7
 8000a76:	4640      	mov	r0, r8
 8000a78:	e9cd 9405 	strd	r9, r4, [sp, #20]
 8000a7c:	9308      	str	r3, [sp, #32]
 8000a7e:	e9cd 5a03 	strd	r5, sl, [sp, #12]
 8000a82:	9607      	str	r6, [sp, #28]
 8000a84:	f000 fcc0 	bl	8001408 <LL_GPIO_Init>
 8000a88:	68fb      	ldr	r3, [r7, #12]
 8000a8a:	4b16      	ldr	r3, [pc, #88]	; (8000ae4 <main+0x19c>)
 8000a8c:	2240      	movs	r2, #64	; 0x40
 8000a8e:	f883 4326 	strb.w	r4, [r3, #806]	; 0x326
 8000a92:	605a      	str	r2, [r3, #4]
 8000a94:	f44f 33e1 	mov.w	r3, #115200	; 0x1c200
 8000a98:	e9cd 3409 	strd	r3, r4, [sp, #36]	; 0x24
 8000a9c:	e9cd 440b 	strd	r4, r4, [sp, #44]	; 0x2c
 8000aa0:	e9cd 540d 	strd	r5, r4, [sp, #52]	; 0x34
 8000aa4:	940f      	str	r4, [sp, #60]	; 0x3c
 8000aa6:	4c10      	ldr	r4, [pc, #64]	; (8000ae8 <main+0x1a0>)
 8000aa8:	a909      	add	r1, sp, #36	; 0x24
 8000aaa:	4620      	mov	r0, r4
 8000aac:	f000 fdfe 	bl	80016ac <LL_USART_Init>
 8000ab0:	6923      	ldr	r3, [r4, #16]
 8000ab2:	f423 4390 	bic.w	r3, r3, #18432	; 0x4800
 8000ab6:	6123      	str	r3, [r4, #16]
 8000ab8:	6963      	ldr	r3, [r4, #20]
 8000aba:	f023 032a 	bic.w	r3, r3, #42	; 0x2a
 8000abe:	6163      	str	r3, [r4, #20]
 8000ac0:	68e3      	ldr	r3, [r4, #12]
 8000ac2:	f443 5300 	orr.w	r3, r3, #8192	; 0x2000
 8000ac6:	60e3      	str	r3, [r4, #12]
 8000ac8:	f7ff fdea 	bl	80006a0 <bootloader_mainloop>
 8000acc:	e7fe      	b.n	8000acc <main+0x184>
 8000ace:	bf00      	nop
 8000ad0:	40023800 	.word	0x40023800
 8000ad4:	e000ed00 	.word	0xe000ed00
 8000ad8:	05fa0700 	.word	0x05fa0700
 8000adc:	40013800 	.word	0x40013800
 8000ae0:	40020800 	.word	0x40020800
 8000ae4:	e000e100 	.word	0xe000e100
 8000ae8:	40004400 	.word	0x40004400
 8000aec:	40020000 	.word	0x40020000

08000af0 <crc_accumulate>:
 8000af0:	880a      	ldrh	r2, [r1, #0]
 8000af2:	4050      	eors	r0, r2
 8000af4:	ea80 1000 	eor.w	r0, r0, r0, lsl #4
 8000af8:	b2c0      	uxtb	r0, r0
 8000afa:	0903      	lsrs	r3, r0, #4
 8000afc:	ea83 2312 	eor.w	r3, r3, r2, lsr #8
 8000b00:	ea43 2300 	orr.w	r3, r3, r0, lsl #8
 8000b04:	ea83 00c0 	eor.w	r0, r3, r0, lsl #3
 8000b08:	8008      	strh	r0, [r1, #0]
 8000b0a:	4770      	bx	lr

08000b0c <mavlink_update_checksum>:
 8000b0c:	b513      	push	{r0, r1, r4, lr}
 8000b0e:	4604      	mov	r4, r0
 8000b10:	4608      	mov	r0, r1
 8000b12:	7823      	ldrb	r3, [r4, #0]
 8000b14:	7862      	ldrb	r2, [r4, #1]
 8000b16:	f10d 0106 	add.w	r1, sp, #6
 8000b1a:	ea43 2302 	orr.w	r3, r3, r2, lsl #8
 8000b1e:	f8ad 3006 	strh.w	r3, [sp, #6]
 8000b22:	f7ff ffe5 	bl	8000af0 <crc_accumulate>
 8000b26:	f8bd 3006 	ldrh.w	r3, [sp, #6]
 8000b2a:	8023      	strh	r3, [r4, #0]
 8000b2c:	b002      	add	sp, #8
 8000b2e:	bd10      	pop	{r4, pc}

08000b30 <mavlink_init>:
 8000b30:	b510      	push	{r4, lr}
 8000b32:	f240 1223 	movw	r2, #291	; 0x123
 8000b36:	4604      	mov	r4, r0
 8000b38:	2100      	movs	r1, #0
 8000b3a:	f000 fe6f 	bl	800181c <memset>
 8000b3e:	2218      	movs	r2, #24
 8000b40:	2100      	movs	r1, #0
 8000b42:	f504 7092 	add.w	r0, r4, #292	; 0x124
 8000b46:	f000 fe69 	bl	800181c <memset>
 8000b4a:	22fe      	movs	r2, #254	; 0xfe
 8000b4c:	2100      	movs	r1, #0
 8000b4e:	f504 709e 	add.w	r0, r4, #316	; 0x13c
 8000b52:	f000 fe63 	bl	800181c <memset>
 8000b56:	22fe      	movs	r2, #254	; 0xfe
 8000b58:	2100      	movs	r1, #0
 8000b5a:	f204 203a 	addw	r0, r4, #570	; 0x23a
 8000b5e:	f000 fe5d 	bl	800181c <memset>
 8000b62:	f44f 7280 	mov.w	r2, #256	; 0x100
 8000b66:	2100      	movs	r1, #0
 8000b68:	f204 3039 	addw	r0, r4, #825	; 0x339
 8000b6c:	f000 fe56 	bl	800181c <memset>
 8000b70:	2300      	movs	r3, #0
 8000b72:	f8c4 3458 	str.w	r3, [r4, #1112]	; 0x458
 8000b76:	f8a4 345c 	strh.w	r3, [r4, #1116]	; 0x45c
 8000b7a:	f884 3338 	strb.w	r3, [r4, #824]	; 0x338
 8000b7e:	2001      	movs	r0, #1
 8000b80:	bd10      	pop	{r4, pc}

08000b82 <mavlink_handle_ftp>:
 8000b82:	b538      	push	{r3, r4, r5, lr}
 8000b84:	78c5      	ldrb	r5, [r0, #3]
 8000b86:	f500 739e 	add.w	r3, r0, #316	; 0x13c
 8000b8a:	2dfe      	cmp	r5, #254	; 0xfe
 8000b8c:	4604      	mov	r4, r0
 8000b8e:	bf28      	it	cs
 8000b90:	25fe      	movcs	r5, #254	; 0xfe
 8000b92:	4618      	mov	r0, r3
 8000b94:	22fe      	movs	r2, #254	; 0xfe
 8000b96:	2100      	movs	r1, #0
 8000b98:	f000 fe40 	bl	800181c <memset>
 8000b9c:	462a      	mov	r2, r5
 8000b9e:	f104 010c 	add.w	r1, r4, #12
 8000ba2:	f000 fe2d 	bl	8001800 <memcpy>
 8000ba6:	f8b4 313f 	ldrh.w	r3, [r4, #319]	; 0x13f
 8000baa:	f894 1142 	ldrb.w	r1, [r4, #322]	; 0x142
 8000bae:	f8b4 0458 	ldrh.w	r0, [r4, #1112]	; 0x458
 8000bb2:	ba5b      	rev16	r3, r3
 8000bb4:	2906      	cmp	r1, #6
 8000bb6:	b29a      	uxth	r2, r3
 8000bb8:	f8a4 3458 	strh.w	r3, [r4, #1112]	; 0x458
 8000bbc:	d008      	beq.n	8000bd0 <mavlink_handle_ftp+0x4e>
 8000bbe:	2907      	cmp	r1, #7
 8000bc0:	d013      	beq.n	8000bea <mavlink_handle_ftp+0x68>
 8000bc2:	2901      	cmp	r1, #1
 8000bc4:	d102      	bne.n	8000bcc <mavlink_handle_ftp+0x4a>
 8000bc6:	2300      	movs	r3, #0
 8000bc8:	f8a4 345a 	strh.w	r3, [r4, #1114]	; 0x45a
 8000bcc:	2001      	movs	r0, #1
 8000bce:	bd38      	pop	{r3, r4, r5, pc}
 8000bd0:	f894 345a 	ldrb.w	r3, [r4, #1114]	; 0x45a
 8000bd4:	3301      	adds	r3, #1
 8000bd6:	f884 345a 	strb.w	r3, [r4, #1114]	; 0x45a
 8000bda:	f894 314b 	ldrb.w	r3, [r4, #331]	; 0x14b
 8000bde:	f884 345e 	strb.w	r3, [r4, #1118]	; 0x45e
 8000be2:	2301      	movs	r3, #1
 8000be4:	f884 345b 	strb.w	r3, [r4, #1115]	; 0x45b
 8000be8:	e7f0      	b.n	8000bcc <mavlink_handle_ftp+0x4a>
 8000bea:	1a13      	subs	r3, r2, r0
 8000bec:	2b01      	cmp	r3, #1
 8000bee:	f04f 0301 	mov.w	r3, #1
 8000bf2:	bfdf      	itttt	le
 8000bf4:	f884 345c 	strble.w	r3, [r4, #1116]	; 0x45c
 8000bf8:	f894 3143 	ldrble.w	r3, [r4, #323]	; 0x143
 8000bfc:	f884 3451 	strble.w	r3, [r4, #1105]	; 0x451
 8000c00:	f8d4 3147 	ldrle.w	r3, [r4, #327]	; 0x147
 8000c04:	bfce      	itee	gt
 8000c06:	f884 345d 	strbgt.w	r3, [r4, #1117]	; 0x45d
 8000c0a:	ba1b      	revle	r3, r3
 8000c0c:	f8c4 3454 	strle.w	r3, [r4, #1108]	; 0x454
 8000c10:	e7dc      	b.n	8000bcc <mavlink_handle_ftp+0x4a>
	...

08000c14 <mavlink_receive>:
 8000c14:	e92d 41f0 	stmdb	sp!, {r4, r5, r6, r7, r8, lr}
 8000c18:	4ca9      	ldr	r4, [pc, #676]	; (8000ec0 <mavlink_receive+0x2ac>)
 8000c1a:	78e3      	ldrb	r3, [r4, #3]
 8000c1c:	f04f 0800 	mov.w	r8, #0
 8000c20:	4606      	mov	r6, r0
 8000c22:	460d      	mov	r5, r1
 8000c24:	f884 8000 	strb.w	r8, [r4]
 8000c28:	2b0f      	cmp	r3, #15
 8000c2a:	d821      	bhi.n	8000c70 <mavlink_receive+0x5c>
 8000c2c:	e8df f013 	tbh	[pc, r3, lsl #1]
 8000c30:	00100010 	.word	0x00100010
 8000c34:	00770064 	.word	0x00770064
 8000c38:	008a0085 	.word	0x008a0085
 8000c3c:	00960090 	.word	0x00960090
 8000c40:	00ae009c 	.word	0x00ae009c
 8000c44:	00d600c2 	.word	0x00d600c2
 8000c48:	012b00e6 	.word	0x012b00e6
 8000c4c:	0172012b 	.word	0x0172012b
 8000c50:	29fd      	cmp	r1, #253	; 0xfd
 8000c52:	7b23      	ldrb	r3, [r4, #12]
 8000c54:	d145      	bne.n	8000ce2 <mavlink_receive+0xce>
 8000c56:	2202      	movs	r2, #2
 8000c58:	70e2      	strb	r2, [r4, #3]
 8000c5a:	4a9a      	ldr	r2, [pc, #616]	; (8000ec4 <mavlink_receive+0x2b0>)
 8000c5c:	2100      	movs	r1, #0
 8000c5e:	70d1      	strb	r1, [r2, #3]
 8000c60:	7095      	strb	r5, [r2, #2]
 8000c62:	f023 0301 	bic.w	r3, r3, #1
 8000c66:	7323      	strb	r3, [r4, #12]
 8000c68:	f04f 33ff 	mov.w	r3, #4294967295	; 0xffffffff
 8000c6c:	7013      	strb	r3, [r2, #0]
 8000c6e:	7053      	strb	r3, [r2, #1]
 8000c70:	7822      	ldrb	r2, [r4, #0]
 8000c72:	2a01      	cmp	r2, #1
 8000c74:	d107      	bne.n	8000c86 <mavlink_receive+0x72>
 8000c76:	4993      	ldr	r1, [pc, #588]	; (8000ec4 <mavlink_receive+0x2b0>)
 8000c78:	8923      	ldrh	r3, [r4, #8]
 8000c7a:	7989      	ldrb	r1, [r1, #6]
 8000c7c:	7161      	strb	r1, [r4, #5]
 8000c7e:	b903      	cbnz	r3, 8000c82 <mavlink_receive+0x6e>
 8000c80:	8163      	strh	r3, [r4, #10]
 8000c82:	3301      	adds	r3, #1
 8000c84:	8123      	strh	r3, [r4, #8]
 8000c86:	b116      	cbz	r6, 8000c8e <mavlink_receive+0x7a>
 8000c88:	4b8e      	ldr	r3, [pc, #568]	; (8000ec4 <mavlink_receive+0x2b0>)
 8000c8a:	78db      	ldrb	r3, [r3, #3]
 8000c8c:	70f3      	strb	r3, [r6, #3]
 8000c8e:	78e3      	ldrb	r3, [r4, #3]
 8000c90:	f886 3127 	strb.w	r3, [r6, #295]	; 0x127
 8000c94:	7923      	ldrb	r3, [r4, #4]
 8000c96:	f886 3128 	strb.w	r3, [r6, #296]	; 0x128
 8000c9a:	7963      	ldrb	r3, [r4, #5]
 8000c9c:	3301      	adds	r3, #1
 8000c9e:	f886 3129 	strb.w	r3, [r6, #297]	; 0x129
 8000ca2:	8923      	ldrh	r3, [r4, #8]
 8000ca4:	f8a6 312c 	strh.w	r3, [r6, #300]	; 0x12c
 8000ca8:	78a3      	ldrb	r3, [r4, #2]
 8000caa:	f8a6 312e 	strh.w	r3, [r6, #302]	; 0x12e
 8000cae:	7b23      	ldrb	r3, [r4, #12]
 8000cb0:	f886 3130 	strb.w	r3, [r6, #304]	; 0x130
 8000cb4:	2a02      	cmp	r2, #2
 8000cb6:	f04f 0300 	mov.w	r3, #0
 8000cba:	70a3      	strb	r3, [r4, #2]
 8000cbc:	f040 8138 	bne.w	8000f30 <mavlink_receive+0x31c>
 8000cc0:	b11e      	cbz	r6, 8000cca <mavlink_receive+0xb6>
 8000cc2:	4b80      	ldr	r3, [pc, #512]	; (8000ec4 <mavlink_receive+0x2b0>)
 8000cc4:	f8b3 3114 	ldrh.w	r3, [r3, #276]	; 0x114
 8000cc8:	8033      	strh	r3, [r6, #0]
 8000cca:	2301      	movs	r3, #1
 8000ccc:	2200      	movs	r2, #0
 8000cce:	2dfd      	cmp	r5, #253	; 0xfd
 8000cd0:	70a3      	strb	r3, [r4, #2]
 8000cd2:	7022      	strb	r2, [r4, #0]
 8000cd4:	f000 813c 	beq.w	8000f50 <mavlink_receive+0x33c>
 8000cd8:	70e3      	strb	r3, [r4, #3]
 8000cda:	f04f 30ff 	mov.w	r0, #4294967295	; 0xffffffff
 8000cde:	e8bd 81f0 	ldmia.w	sp!, {r4, r5, r6, r7, r8, pc}
 8000ce2:	29fe      	cmp	r1, #254	; 0xfe
 8000ce4:	d1c4      	bne.n	8000c70 <mavlink_receive+0x5c>
 8000ce6:	2202      	movs	r2, #2
 8000ce8:	70e2      	strb	r2, [r4, #3]
 8000cea:	4a76      	ldr	r2, [pc, #472]	; (8000ec4 <mavlink_receive+0x2b0>)
 8000cec:	2100      	movs	r1, #0
 8000cee:	70d1      	strb	r1, [r2, #3]
 8000cf0:	7095      	strb	r5, [r2, #2]
 8000cf2:	f043 0301 	orr.w	r3, r3, #1
 8000cf6:	e7b6      	b.n	8000c66 <mavlink_receive+0x52>
 8000cf8:	4f72      	ldr	r7, [pc, #456]	; (8000ec4 <mavlink_receive+0x2b0>)
 8000cfa:	f884 8004 	strb.w	r8, [r4, #4]
 8000cfe:	70f9      	strb	r1, [r7, #3]
 8000d00:	4638      	mov	r0, r7
 8000d02:	f7ff ff03 	bl	8000b0c <mavlink_update_checksum>
 8000d06:	7b23      	ldrb	r3, [r4, #12]
 8000d08:	07db      	lsls	r3, r3, #31
 8000d0a:	d505      	bpl.n	8000d18 <mavlink_receive+0x104>
 8000d0c:	f887 8004 	strb.w	r8, [r7, #4]
 8000d10:	f887 8005 	strb.w	r8, [r7, #5]
 8000d14:	2305      	movs	r3, #5
 8000d16:	e000      	b.n	8000d1a <mavlink_receive+0x106>
 8000d18:	2303      	movs	r3, #3
 8000d1a:	70e3      	strb	r3, [r4, #3]
 8000d1c:	e7a8      	b.n	8000c70 <mavlink_receive+0x5c>
 8000d1e:	4869      	ldr	r0, [pc, #420]	; (8000ec4 <mavlink_receive+0x2b0>)
 8000d20:	f011 0ffe 	tst.w	r1, #254	; 0xfe
 8000d24:	7101      	strb	r1, [r0, #4]
 8000d26:	d004      	beq.n	8000d32 <mavlink_receive+0x11e>
 8000d28:	78a3      	ldrb	r3, [r4, #2]
 8000d2a:	3301      	adds	r3, #1
 8000d2c:	70a3      	strb	r3, [r4, #2]
 8000d2e:	2301      	movs	r3, #1
 8000d30:	e7f3      	b.n	8000d1a <mavlink_receive+0x106>
 8000d32:	f7ff feeb 	bl	8000b0c <mavlink_update_checksum>
 8000d36:	2304      	movs	r3, #4
 8000d38:	e7ef      	b.n	8000d1a <mavlink_receive+0x106>
 8000d3a:	4862      	ldr	r0, [pc, #392]	; (8000ec4 <mavlink_receive+0x2b0>)
 8000d3c:	7141      	strb	r1, [r0, #5]
 8000d3e:	f7ff fee5 	bl	8000b0c <mavlink_update_checksum>
 8000d42:	e7e7      	b.n	8000d14 <mavlink_receive+0x100>
 8000d44:	485f      	ldr	r0, [pc, #380]	; (8000ec4 <mavlink_receive+0x2b0>)
 8000d46:	7181      	strb	r1, [r0, #6]
 8000d48:	f7ff fee0 	bl	8000b0c <mavlink_update_checksum>
 8000d4c:	2306      	movs	r3, #6
 8000d4e:	e7e4      	b.n	8000d1a <mavlink_receive+0x106>
 8000d50:	485c      	ldr	r0, [pc, #368]	; (8000ec4 <mavlink_receive+0x2b0>)
 8000d52:	71c1      	strb	r1, [r0, #7]
 8000d54:	f7ff feda 	bl	8000b0c <mavlink_update_checksum>
 8000d58:	2307      	movs	r3, #7
 8000d5a:	e7de      	b.n	8000d1a <mavlink_receive+0x106>
 8000d5c:	4859      	ldr	r0, [pc, #356]	; (8000ec4 <mavlink_receive+0x2b0>)
 8000d5e:	7201      	strb	r1, [r0, #8]
 8000d60:	f7ff fed4 	bl	8000b0c <mavlink_update_checksum>
 8000d64:	2308      	movs	r3, #8
 8000d66:	e7d8      	b.n	8000d1a <mavlink_receive+0x106>
 8000d68:	4f56      	ldr	r7, [pc, #344]	; (8000ec4 <mavlink_receive+0x2b0>)
 8000d6a:	2300      	movs	r3, #0
 8000d6c:	72bb      	strb	r3, [r7, #10]
 8000d6e:	72fb      	strb	r3, [r7, #11]
 8000d70:	4638      	mov	r0, r7
 8000d72:	7279      	strb	r1, [r7, #9]
 8000d74:	f7ff feca 	bl	8000b0c <mavlink_update_checksum>
 8000d78:	7b23      	ldrb	r3, [r4, #12]
 8000d7a:	07d8      	lsls	r0, r3, #31
 8000d7c:	d504      	bpl.n	8000d88 <mavlink_receive+0x174>
 8000d7e:	78fb      	ldrb	r3, [r7, #3]
 8000d80:	2b00      	cmp	r3, #0
 8000d82:	d039      	beq.n	8000df8 <mavlink_receive+0x1e4>
 8000d84:	230b      	movs	r3, #11
 8000d86:	e7c8      	b.n	8000d1a <mavlink_receive+0x106>
 8000d88:	2309      	movs	r3, #9
 8000d8a:	e7c6      	b.n	8000d1a <mavlink_receive+0x106>
 8000d8c:	484d      	ldr	r0, [pc, #308]	; (8000ec4 <mavlink_receive+0x2b0>)
 8000d8e:	7a82      	ldrb	r2, [r0, #10]
 8000d90:	7a43      	ldrb	r3, [r0, #9]
 8000d92:	ea43 2302 	orr.w	r3, r3, r2, lsl #8
 8000d96:	7ac2      	ldrb	r2, [r0, #11]
 8000d98:	ea43 4302 	orr.w	r3, r3, r2, lsl #16
 8000d9c:	ea43 2201 	orr.w	r2, r3, r1, lsl #8
 8000da0:	7243      	strb	r3, [r0, #9]
 8000da2:	f3c2 2307 	ubfx	r3, r2, #8, #8
 8000da6:	0c12      	lsrs	r2, r2, #16
 8000da8:	7283      	strb	r3, [r0, #10]
 8000daa:	72c2      	strb	r2, [r0, #11]
 8000dac:	f7ff feae 	bl	8000b0c <mavlink_update_checksum>
 8000db0:	230a      	movs	r3, #10
 8000db2:	e7b2      	b.n	8000d1a <mavlink_receive+0x106>
 8000db4:	4f43      	ldr	r7, [pc, #268]	; (8000ec4 <mavlink_receive+0x2b0>)
 8000db6:	7aba      	ldrb	r2, [r7, #10]
 8000db8:	7a7b      	ldrb	r3, [r7, #9]
 8000dba:	ea43 2302 	orr.w	r3, r3, r2, lsl #8
 8000dbe:	7afa      	ldrb	r2, [r7, #11]
 8000dc0:	ea43 4302 	orr.w	r3, r3, r2, lsl #16
 8000dc4:	ea43 4201 	orr.w	r2, r3, r1, lsl #16
 8000dc8:	727b      	strb	r3, [r7, #9]
 8000dca:	f3c3 2307 	ubfx	r3, r3, #8, #8
 8000dce:	72bb      	strb	r3, [r7, #10]
 8000dd0:	0c13      	lsrs	r3, r2, #16
 8000dd2:	72fb      	strb	r3, [r7, #11]
 8000dd4:	4638      	mov	r0, r7
 8000dd6:	f7ff fe99 	bl	8000b0c <mavlink_update_checksum>
 8000dda:	e7d0      	b.n	8000d7e <mavlink_receive+0x16a>
 8000ddc:	7923      	ldrb	r3, [r4, #4]
 8000dde:	4f39      	ldr	r7, [pc, #228]	; (8000ec4 <mavlink_receive+0x2b0>)
 8000de0:	1c5a      	adds	r2, r3, #1
 8000de2:	443b      	add	r3, r7
 8000de4:	4638      	mov	r0, r7
 8000de6:	7319      	strb	r1, [r3, #12]
 8000de8:	7122      	strb	r2, [r4, #4]
 8000dea:	f7ff fe8f 	bl	8000b0c <mavlink_update_checksum>
 8000dee:	7922      	ldrb	r2, [r4, #4]
 8000df0:	78fb      	ldrb	r3, [r7, #3]
 8000df2:	429a      	cmp	r2, r3
 8000df4:	f47f af3c 	bne.w	8000c70 <mavlink_receive+0x5c>
 8000df8:	230c      	movs	r3, #12
 8000dfa:	e78e      	b.n	8000d1a <mavlink_receive+0x106>
 8000dfc:	f8df 80c4 	ldr.w	r8, [pc, #196]	; 8000ec4 <mavlink_receive+0x2b0>
 8000e00:	4831      	ldr	r0, [pc, #196]	; (8000ec8 <mavlink_receive+0x2b4>)
 8000e02:	f898 300a 	ldrb.w	r3, [r8, #10]
 8000e06:	f898 1009 	ldrb.w	r1, [r8, #9]
 8000e0a:	ea41 2103 	orr.w	r1, r1, r3, lsl #8
 8000e0e:	f898 300b 	ldrb.w	r3, [r8, #11]
 8000e12:	27dc      	movs	r7, #220	; 0xdc
 8000e14:	ea41 4103 	orr.w	r1, r1, r3, lsl #16
 8000e18:	f04f 0c0c 	mov.w	ip, #12
 8000e1c:	2300      	movs	r3, #0
 8000e1e:	19da      	adds	r2, r3, r7
 8000e20:	3201      	adds	r2, #1
 8000e22:	0852      	lsrs	r2, r2, #1
 8000e24:	fb0c fe02 	mul.w	lr, ip, r2
 8000e28:	f850 e00e 	ldr.w	lr, [r0, lr]
 8000e2c:	4571      	cmp	r1, lr
 8000e2e:	d203      	bcs.n	8000e38 <mavlink_receive+0x224>
 8000e30:	1e57      	subs	r7, r2, #1
 8000e32:	429f      	cmp	r7, r3
 8000e34:	d8f3      	bhi.n	8000e1e <mavlink_receive+0x20a>
 8000e36:	e001      	b.n	8000e3c <mavlink_receive+0x228>
 8000e38:	4613      	mov	r3, r2
 8000e3a:	d8fa      	bhi.n	8000e32 <mavlink_receive+0x21e>
 8000e3c:	220c      	movs	r2, #12
 8000e3e:	4353      	muls	r3, r2
 8000e40:	18c7      	adds	r7, r0, r3
 8000e42:	58c3      	ldr	r3, [r0, r3]
 8000e44:	481f      	ldr	r0, [pc, #124]	; (8000ec4 <mavlink_receive+0x2b0>)
 8000e46:	4299      	cmp	r1, r3
 8000e48:	bf16      	itet	ne
 8000e4a:	2700      	movne	r7, #0
 8000e4c:	7939      	ldrbeq	r1, [r7, #4]
 8000e4e:	4639      	movne	r1, r7
 8000e50:	f7ff fe5c 	bl	8000b0c <mavlink_update_checksum>
 8000e54:	f8b8 3000 	ldrh.w	r3, [r8]
 8000e58:	f888 5114 	strb.w	r5, [r8, #276]	; 0x114
 8000e5c:	b2db      	uxtb	r3, r3
 8000e5e:	429d      	cmp	r5, r3
 8000e60:	bf14      	ite	ne
 8000e62:	230e      	movne	r3, #14
 8000e64:	230d      	moveq	r3, #13
 8000e66:	70e3      	strb	r3, [r4, #3]
 8000e68:	2f00      	cmp	r7, #0
 8000e6a:	f43f af01 	beq.w	8000c70 <mavlink_receive+0x5c>
 8000e6e:	7923      	ldrb	r3, [r4, #4]
 8000e70:	79ba      	ldrb	r2, [r7, #6]
 8000e72:	4293      	cmp	r3, r2
 8000e74:	f4bf aefc 	bcs.w	8000c70 <mavlink_receive+0x5c>
 8000e78:	4814      	ldr	r0, [pc, #80]	; (8000ecc <mavlink_receive+0x2b8>)
 8000e7a:	1ad2      	subs	r2, r2, r3
 8000e7c:	2100      	movs	r1, #0
 8000e7e:	4418      	add	r0, r3
 8000e80:	f000 fccc 	bl	800181c <memset>
 8000e84:	e6f4      	b.n	8000c70 <mavlink_receive+0x5c>
 8000e86:	2b0e      	cmp	r3, #14
 8000e88:	4b0e      	ldr	r3, [pc, #56]	; (8000ec4 <mavlink_receive+0x2b0>)
 8000e8a:	d016      	beq.n	8000eba <mavlink_receive+0x2a6>
 8000e8c:	881a      	ldrh	r2, [r3, #0]
 8000e8e:	ebb1 2f12 	cmp.w	r1, r2, lsr #8
 8000e92:	bf14      	ite	ne
 8000e94:	2202      	movne	r2, #2
 8000e96:	2201      	moveq	r2, #1
 8000e98:	7919      	ldrb	r1, [r3, #4]
 8000e9a:	7022      	strb	r2, [r4, #0]
 8000e9c:	07c9      	lsls	r1, r1, #31
 8000e9e:	f883 5115 	strb.w	r5, [r3, #277]	; 0x115
 8000ea2:	d515      	bpl.n	8000ed0 <mavlink_receive+0x2bc>
 8000ea4:	230f      	movs	r3, #15
 8000ea6:	70e3      	strb	r3, [r4, #3]
 8000ea8:	2a02      	cmp	r2, #2
 8000eaa:	f04f 030d 	mov.w	r3, #13
 8000eae:	7363      	strb	r3, [r4, #13]
 8000eb0:	f43f aede 	beq.w	8000c70 <mavlink_receive+0x5c>
 8000eb4:	2300      	movs	r3, #0
 8000eb6:	7023      	strb	r3, [r4, #0]
 8000eb8:	e6da      	b.n	8000c70 <mavlink_receive+0x5c>
 8000eba:	2202      	movs	r2, #2
 8000ebc:	e7ec      	b.n	8000e98 <mavlink_receive+0x284>
 8000ebe:	bf00      	nop
 8000ec0:	200005c4 	.word	0x200005c4
 8000ec4:	20000138 	.word	0x20000138
 8000ec8:	08001844 	.word	0x08001844
 8000ecc:	20000144 	.word	0x20000144
 8000ed0:	6922      	ldr	r2, [r4, #16]
 8000ed2:	b122      	cbz	r2, 8000ede <mavlink_receive+0x2ca>
 8000ed4:	6b17      	ldr	r7, [r2, #48]	; 0x30
 8000ed6:	b977      	cbnz	r7, 8000ef6 <mavlink_receive+0x2e2>
 8000ed8:	7823      	ldrb	r3, [r4, #0]
 8000eda:	2b02      	cmp	r3, #2
 8000edc:	d117      	bne.n	8000f0e <mavlink_receive+0x2fa>
 8000ede:	2301      	movs	r3, #1
 8000ee0:	70e3      	strb	r3, [r4, #3]
 8000ee2:	2e00      	cmp	r6, #0
 8000ee4:	f43f aec4 	beq.w	8000c70 <mavlink_receive+0x5c>
 8000ee8:	491e      	ldr	r1, [pc, #120]	; (8000f64 <mavlink_receive+0x350>)
 8000eea:	f240 1223 	movw	r2, #291	; 0x123
 8000eee:	4630      	mov	r0, r6
 8000ef0:	f000 fc86 	bl	8001800 <memcpy>
 8000ef4:	e6bc      	b.n	8000c70 <mavlink_receive+0x5c>
 8000ef6:	7a99      	ldrb	r1, [r3, #10]
 8000ef8:	7a5a      	ldrb	r2, [r3, #9]
 8000efa:	481b      	ldr	r0, [pc, #108]	; (8000f68 <mavlink_receive+0x354>)
 8000efc:	ea42 2201 	orr.w	r2, r2, r1, lsl #8
 8000f00:	7ad9      	ldrb	r1, [r3, #11]
 8000f02:	ea42 4101 	orr.w	r1, r2, r1, lsl #16
 8000f06:	47b8      	blx	r7
 8000f08:	2800      	cmp	r0, #0
 8000f0a:	d1e8      	bne.n	8000ede <mavlink_receive+0x2ca>
 8000f0c:	e7e4      	b.n	8000ed8 <mavlink_receive+0x2c4>
 8000f0e:	2303      	movs	r3, #3
 8000f10:	7023      	strb	r3, [r4, #0]
 8000f12:	e7e4      	b.n	8000ede <mavlink_receive+0x2ca>
 8000f14:	7b63      	ldrb	r3, [r4, #13]
 8000f16:	4a15      	ldr	r2, [pc, #84]	; (8000f6c <mavlink_receive+0x358>)
 8000f18:	1ad2      	subs	r2, r2, r3
 8000f1a:	3b01      	subs	r3, #1
 8000f1c:	b2db      	uxtb	r3, r3
 8000f1e:	f882 1116 	strb.w	r1, [r2, #278]	; 0x116
 8000f22:	7363      	strb	r3, [r4, #13]
 8000f24:	2b00      	cmp	r3, #0
 8000f26:	f47f aea3 	bne.w	8000c70 <mavlink_receive+0x5c>
 8000f2a:	2301      	movs	r3, #1
 8000f2c:	7023      	strb	r3, [r4, #0]
 8000f2e:	e7d7      	b.n	8000ee0 <mavlink_receive+0x2cc>
 8000f30:	2a03      	cmp	r2, #3
 8000f32:	f43f aeca 	beq.w	8000cca <mavlink_receive+0xb6>
 8000f36:	2a00      	cmp	r2, #0
 8000f38:	f43f aecf 	beq.w	8000cda <mavlink_receive+0xc6>
 8000f3c:	68b3      	ldr	r3, [r6, #8]
 8000f3e:	f3c3 2317 	ubfx	r3, r3, #8, #24
 8000f42:	2b6e      	cmp	r3, #110	; 0x6e
 8000f44:	d102      	bne.n	8000f4c <mavlink_receive+0x338>
 8000f46:	4630      	mov	r0, r6
 8000f48:	f7ff fe1b 	bl	8000b82 <mavlink_handle_ftp>
 8000f4c:	2001      	movs	r0, #1
 8000f4e:	e6c6      	b.n	8000cde <mavlink_receive+0xca>
 8000f50:	2302      	movs	r3, #2
 8000f52:	70e3      	strb	r3, [r4, #3]
 8000f54:	4b03      	ldr	r3, [pc, #12]	; (8000f64 <mavlink_receive+0x350>)
 8000f56:	f04f 30ff 	mov.w	r0, #4294967295	; 0xffffffff
 8000f5a:	70da      	strb	r2, [r3, #3]
 8000f5c:	7018      	strb	r0, [r3, #0]
 8000f5e:	7058      	strb	r0, [r3, #1]
 8000f60:	e6bd      	b.n	8000cde <mavlink_receive+0xca>
 8000f62:	bf00      	nop
 8000f64:	20000138 	.word	0x20000138
 8000f68:	200005c4 	.word	0x200005c4
 8000f6c:	20000145 	.word	0x20000145

08000f70 <mavlink_ftp_send>:
 8000f70:	e92d 47f0 	stmdb	sp!, {r4, r5, r6, r7, r8, r9, sl, lr}
 8000f74:	f8b0 3458 	ldrh.w	r3, [r0, #1112]	; 0x458
 8000f78:	f880 323e 	strb.w	r3, [r0, #574]	; 0x23e
 8000f7c:	0a1a      	lsrs	r2, r3, #8
 8000f7e:	f890 345a 	ldrb.w	r3, [r0, #1114]	; 0x45a
 8000f82:	f880 323f 	strb.w	r3, [r0, #575]	; 0x23f
 8000f86:	2901      	cmp	r1, #1
 8000f88:	f04f 0300 	mov.w	r3, #0
 8000f8c:	f880 3241 	strb.w	r3, [r0, #577]	; 0x241
 8000f90:	bf0c      	ite	eq
 8000f92:	2380      	moveq	r3, #128	; 0x80
 8000f94:	2381      	movne	r3, #129	; 0x81
 8000f96:	b0c4      	sub	sp, #272	; 0x110
 8000f98:	4604      	mov	r4, r0
 8000f9a:	f880 223d 	strb.w	r2, [r0, #573]	; 0x23d
 8000f9e:	f880 3240 	strb.w	r3, [r0, #576]	; 0x240
 8000fa2:	b119      	cbz	r1, 8000fac <mavlink_ftp_send+0x3c>
 8000fa4:	f890 345d 	ldrb.w	r3, [r0, #1117]	; 0x45d
 8000fa8:	f880 3249 	strb.w	r3, [r0, #585]	; 0x249
 8000fac:	f894 723a 	ldrb.w	r7, [r4, #570]	; 0x23a
 8000fb0:	f894 523c 	ldrb.w	r5, [r4, #572]	; 0x23c
 8000fb4:	f894 623b 	ldrb.w	r6, [r4, #571]	; 0x23b
 8000fb8:	22fb      	movs	r2, #251	; 0xfb
 8000fba:	f204 213d 	addw	r1, r4, #573	; 0x23d
 8000fbe:	f10d 0013 	add.w	r0, sp, #19
 8000fc2:	f000 fc1d 	bl	8001800 <memcpy>
 8000fc6:	f88d 7010 	strb.w	r7, [sp, #16]
 8000fca:	f88d 5012 	strb.w	r5, [sp, #18]
 8000fce:	f104 070c 	add.w	r7, r4, #12
 8000fd2:	25fe      	movs	r5, #254	; 0xfe
 8000fd4:	462a      	mov	r2, r5
 8000fd6:	a904      	add	r1, sp, #16
 8000fd8:	4638      	mov	r0, r7
 8000fda:	f88d 6011 	strb.w	r6, [sp, #17]
 8000fde:	f000 fc0f 	bl	8001800 <memcpy>
 8000fe2:	4e7f      	ldr	r6, [pc, #508]	; (80011e0 <mavlink_ftp_send+0x270>)
 8000fe4:	2300      	movs	r3, #0
 8000fe6:	226e      	movs	r2, #110	; 0x6e
 8000fe8:	7262      	strb	r2, [r4, #9]
 8000fea:	72a3      	strb	r3, [r4, #10]
 8000fec:	72e3      	strb	r3, [r4, #11]
 8000fee:	7b31      	ldrb	r1, [r6, #12]
 8000ff0:	f011 0102 	ands.w	r1, r1, #2
 8000ff4:	f000 8083 	beq.w	80010fe <mavlink_ftp_send+0x18e>
 8000ff8:	70a5      	strb	r5, [r4, #2]
 8000ffa:	2306      	movs	r3, #6
 8000ffc:	462a      	mov	r2, r5
 8000ffe:	2500      	movs	r5, #0
 8001000:	70e2      	strb	r2, [r4, #3]
 8001002:	7125      	strb	r5, [r4, #4]
 8001004:	7165      	strb	r5, [r4, #5]
 8001006:	79b5      	ldrb	r5, [r6, #6]
 8001008:	71a5      	strb	r5, [r4, #6]
 800100a:	2001      	movs	r0, #1
 800100c:	eb05 0c00 	add.w	ip, r5, r0
 8001010:	f886 c006 	strb.w	ip, [r6, #6]
 8001014:	78a6      	ldrb	r6, [r4, #2]
 8001016:	71e0      	strb	r0, [r4, #7]
 8001018:	7220      	strb	r0, [r4, #8]
 800101a:	f88d 6004 	strb.w	r6, [sp, #4]
 800101e:	f88d 2005 	strb.w	r2, [sp, #5]
 8001022:	2900      	cmp	r1, #0
 8001024:	d079      	beq.n	800111a <mavlink_ftp_send+0x1aa>
 8001026:	226e      	movs	r2, #110	; 0x6e
 8001028:	f88d 5006 	strb.w	r5, [sp, #6]
 800102c:	f88d 0007 	strb.w	r0, [sp, #7]
 8001030:	f88d 0008 	strb.w	r0, [sp, #8]
 8001034:	f88d 2009 	strb.w	r2, [sp, #9]
 8001038:	b29d      	uxth	r5, r3
 800103a:	f64f 73ff 	movw	r3, #65535	; 0xffff
 800103e:	f8ad 3002 	strh.w	r3, [sp, #2]
 8001042:	f10d 0605 	add.w	r6, sp, #5
 8001046:	3d01      	subs	r5, #1
 8001048:	b2ad      	uxth	r5, r5
 800104a:	2d00      	cmp	r5, #0
 800104c:	d177      	bne.n	800113e <mavlink_ftp_send+0x1ce>
 800104e:	78e5      	ldrb	r5, [r4, #3]
 8001050:	463e      	mov	r6, r7
 8001052:	f10d 0102 	add.w	r1, sp, #2
 8001056:	2d00      	cmp	r5, #0
 8001058:	d178      	bne.n	800114c <mavlink_ftp_send+0x1dc>
 800105a:	2054      	movs	r0, #84	; 0x54
 800105c:	f7ff fd48 	bl	8000af0 <crc_accumulate>
 8001060:	78e3      	ldrb	r3, [r4, #3]
 8001062:	f891 8000 	ldrb.w	r8, [r1]
 8001066:	f807 8003 	strb.w	r8, [r7, r3]
 800106a:	78e3      	ldrb	r3, [r4, #3]
 800106c:	880a      	ldrh	r2, [r1, #0]
 800106e:	443b      	add	r3, r7
 8001070:	0a11      	lsrs	r1, r2, #8
 8001072:	7059      	strb	r1, [r3, #1]
 8001074:	78a3      	ldrb	r3, [r4, #2]
 8001076:	f894 9003 	ldrb.w	r9, [r4, #3]
 800107a:	8022      	strh	r2, [r4, #0]
 800107c:	2bfe      	cmp	r3, #254	; 0xfe
 800107e:	f204 3639 	addw	r6, r4, #825	; 0x339
 8001082:	d06a      	beq.n	800115a <mavlink_ftp_send+0x1ea>
 8001084:	46ca      	mov	sl, r9
 8001086:	f1ba 0f01 	cmp.w	sl, #1
 800108a:	fa5f f98a 	uxtb.w	r9, sl
 800108e:	d905      	bls.n	800109c <mavlink_ftp_send+0x12c>
 8001090:	f10a 32ff 	add.w	r2, sl, #4294967295	; 0xffffffff
 8001094:	5cb9      	ldrb	r1, [r7, r2]
 8001096:	2900      	cmp	r1, #0
 8001098:	f000 80a0 	beq.w	80011dc <mavlink_ftp_send+0x26c>
 800109c:	f884 3339 	strb.w	r3, [r4, #825]	; 0x339
 80010a0:	7963      	ldrb	r3, [r4, #5]
 80010a2:	f884 333c 	strb.w	r3, [r4, #828]	; 0x33c
 80010a6:	79a3      	ldrb	r3, [r4, #6]
 80010a8:	f884 333d 	strb.w	r3, [r4, #829]	; 0x33d
 80010ac:	79e3      	ldrb	r3, [r4, #7]
 80010ae:	f884 333e 	strb.w	r3, [r4, #830]	; 0x33e
 80010b2:	7a23      	ldrb	r3, [r4, #8]
 80010b4:	7aa2      	ldrb	r2, [r4, #10]
 80010b6:	f884 333f 	strb.w	r3, [r4, #831]	; 0x33f
 80010ba:	7a63      	ldrb	r3, [r4, #9]
 80010bc:	7925      	ldrb	r5, [r4, #4]
 80010be:	f884 533b 	strb.w	r5, [r4, #827]	; 0x33b
 80010c2:	ea43 2302 	orr.w	r3, r3, r2, lsl #8
 80010c6:	7ae2      	ldrb	r2, [r4, #11]
 80010c8:	f884 933a 	strb.w	r9, [r4, #826]	; 0x33a
 80010cc:	ea43 4302 	orr.w	r3, r3, r2, lsl #16
 80010d0:	121a      	asrs	r2, r3, #8
 80010d2:	f884 3340 	strb.w	r3, [r4, #832]	; 0x340
 80010d6:	141b      	asrs	r3, r3, #16
 80010d8:	f884 2341 	strb.w	r2, [r4, #833]	; 0x341
 80010dc:	f884 3342 	strb.w	r3, [r4, #834]	; 0x342
 80010e0:	4652      	mov	r2, sl
 80010e2:	4639      	mov	r1, r7
 80010e4:	f204 3043 	addw	r0, r4, #835	; 0x343
 80010e8:	f000 fb8a 	bl	8001800 <memcpy>
 80010ec:	f10a 0a0a 	add.w	sl, sl, #10
 80010f0:	f015 0501 	ands.w	r5, r5, #1
 80010f4:	44b2      	add	sl, r6
 80010f6:	bf18      	it	ne
 80010f8:	250d      	movne	r5, #13
 80010fa:	2609      	movs	r6, #9
 80010fc:	e047      	b.n	800118e <mavlink_ftp_send+0x21e>
 80010fe:	23fd      	movs	r3, #253	; 0xfd
 8001100:	70a3      	strb	r3, [r4, #2]
 8001102:	462a      	mov	r2, r5
 8001104:	f504 7385 	add.w	r3, r4, #266	; 0x10a
 8001108:	f813 0d01 	ldrb.w	r0, [r3, #-1]!
 800110c:	b918      	cbnz	r0, 8001116 <mavlink_ftp_send+0x1a6>
 800110e:	3a01      	subs	r2, #1
 8001110:	b2d2      	uxtb	r2, r2
 8001112:	2a01      	cmp	r2, #1
 8001114:	d1f8      	bne.n	8001108 <mavlink_ftp_send+0x198>
 8001116:	230a      	movs	r3, #10
 8001118:	e771      	b.n	8000ffe <mavlink_ftp_send+0x8e>
 800111a:	226e      	movs	r2, #110	; 0x6e
 800111c:	f88d 1006 	strb.w	r1, [sp, #6]
 8001120:	f88d 1007 	strb.w	r1, [sp, #7]
 8001124:	f88d 5008 	strb.w	r5, [sp, #8]
 8001128:	f88d 0009 	strb.w	r0, [sp, #9]
 800112c:	f88d 000a 	strb.w	r0, [sp, #10]
 8001130:	f88d 200b 	strb.w	r2, [sp, #11]
 8001134:	f88d 100c 	strb.w	r1, [sp, #12]
 8001138:	f88d 100d 	strb.w	r1, [sp, #13]
 800113c:	e77c      	b.n	8001038 <mavlink_ftp_send+0xc8>
 800113e:	f816 0b01 	ldrb.w	r0, [r6], #1
 8001142:	f10d 0102 	add.w	r1, sp, #2
 8001146:	f7ff fcd3 	bl	8000af0 <crc_accumulate>
 800114a:	e77c      	b.n	8001046 <mavlink_ftp_send+0xd6>
 800114c:	f816 0b01 	ldrb.w	r0, [r6], #1
 8001150:	3d01      	subs	r5, #1
 8001152:	f7ff fccd 	bl	8000af0 <crc_accumulate>
 8001156:	b2ad      	uxth	r5, r5
 8001158:	e77b      	b.n	8001052 <mavlink_ftp_send+0xe2>
 800115a:	f884 3339 	strb.w	r3, [r4, #825]	; 0x339
 800115e:	79a3      	ldrb	r3, [r4, #6]
 8001160:	f884 333b 	strb.w	r3, [r4, #827]	; 0x33b
 8001164:	79e3      	ldrb	r3, [r4, #7]
 8001166:	f884 333c 	strb.w	r3, [r4, #828]	; 0x33c
 800116a:	7a23      	ldrb	r3, [r4, #8]
 800116c:	f884 333d 	strb.w	r3, [r4, #829]	; 0x33d
 8001170:	7a63      	ldrb	r3, [r4, #9]
 8001172:	f884 933a 	strb.w	r9, [r4, #826]	; 0x33a
 8001176:	f884 333e 	strb.w	r3, [r4, #830]	; 0x33e
 800117a:	464a      	mov	r2, r9
 800117c:	4639      	mov	r1, r7
 800117e:	f204 303f 	addw	r0, r4, #831	; 0x33f
 8001182:	f000 fb3d 	bl	8001800 <memcpy>
 8001186:	f109 0a06 	add.w	sl, r9, #6
 800118a:	44b2      	add	sl, r6
 800118c:	2605      	movs	r6, #5
 800118e:	f88a 8000 	strb.w	r8, [sl]
 8001192:	8823      	ldrh	r3, [r4, #0]
 8001194:	0a1b      	lsrs	r3, r3, #8
 8001196:	f88a 3001 	strb.w	r3, [sl, #1]
 800119a:	b135      	cbz	r5, 80011aa <mavlink_ftp_send+0x23a>
 800119c:	462a      	mov	r2, r5
 800119e:	f504 718b 	add.w	r1, r4, #278	; 0x116
 80011a2:	f10a 0002 	add.w	r0, sl, #2
 80011a6:	f000 fb2b 	bl	8001800 <memcpy>
 80011aa:	444e      	add	r6, r9
 80011ac:	3603      	adds	r6, #3
 80011ae:	442e      	add	r6, r5
 80011b0:	490c      	ldr	r1, [pc, #48]	; (80011e4 <mavlink_ftp_send+0x274>)
 80011b2:	b2b6      	uxth	r6, r6
 80011b4:	2200      	movs	r2, #0
 80011b6:	18a3      	adds	r3, r4, r2
 80011b8:	f893 3339 	ldrb.w	r3, [r3, #825]	; 0x339
 80011bc:	604b      	str	r3, [r1, #4]
 80011be:	680b      	ldr	r3, [r1, #0]
 80011c0:	0618      	lsls	r0, r3, #24
 80011c2:	d5fc      	bpl.n	80011be <mavlink_ftp_send+0x24e>
 80011c4:	1c53      	adds	r3, r2, #1
 80011c6:	b2da      	uxtb	r2, r3
 80011c8:	42b2      	cmp	r2, r6
 80011ca:	d3f4      	bcc.n	80011b6 <mavlink_ftp_send+0x246>
 80011cc:	4a05      	ldr	r2, [pc, #20]	; (80011e4 <mavlink_ftp_send+0x274>)
 80011ce:	6813      	ldr	r3, [r2, #0]
 80011d0:	065b      	lsls	r3, r3, #25
 80011d2:	d5fc      	bpl.n	80011ce <mavlink_ftp_send+0x25e>
 80011d4:	2001      	movs	r0, #1
 80011d6:	b044      	add	sp, #272	; 0x110
 80011d8:	e8bd 87f0 	ldmia.w	sp!, {r4, r5, r6, r7, r8, r9, sl, pc}
 80011dc:	4692      	mov	sl, r2
 80011de:	e752      	b.n	8001086 <mavlink_ftp_send+0x116>
 80011e0:	200005c4 	.word	0x200005c4
 80011e4:	40004400 	.word	0x40004400

080011e8 <delay_ms>:
 80011e8:	4a03      	ldr	r2, [pc, #12]	; (80011f8 <delay_ms+0x10>)
 80011ea:	6811      	ldr	r1, [r2, #0]
 80011ec:	6813      	ldr	r3, [r2, #0]
 80011ee:	1a5b      	subs	r3, r3, r1
 80011f0:	4283      	cmp	r3, r0
 80011f2:	d3fb      	bcc.n	80011ec <delay_ms+0x4>
 80011f4:	4770      	bx	lr
 80011f6:	bf00      	nop
 80011f8:	20000624 	.word	0x20000624

080011fc <get_systick>:
 80011fc:	4b01      	ldr	r3, [pc, #4]	; (8001204 <get_systick+0x8>)
 80011fe:	6818      	ldr	r0, [r3, #0]
 8001200:	4770      	bx	lr
 8001202:	bf00      	nop
 8001204:	20000624 	.word	0x20000624

08001208 <peripheral_deinit>:
 8001208:	f04f 22e0 	mov.w	r2, #3758153728	; 0xe000e000
 800120c:	b508      	push	{r3, lr}
 800120e:	6913      	ldr	r3, [r2, #16]
 8001210:	f023 0302 	bic.w	r3, r3, #2
 8001214:	6113      	str	r3, [r2, #16]
 8001216:	4b0b      	ldr	r3, [pc, #44]	; (8001244 <peripheral_deinit+0x3c>)
 8001218:	6a1a      	ldr	r2, [r3, #32]
 800121a:	f442 3200 	orr.w	r2, r2, #131072	; 0x20000
 800121e:	621a      	str	r2, [r3, #32]
 8001220:	6c1a      	ldr	r2, [r3, #64]	; 0x40
 8001222:	f422 3200 	bic.w	r2, r2, #131072	; 0x20000
 8001226:	641a      	str	r2, [r3, #64]	; 0x40
 8001228:	6b1a      	ldr	r2, [r3, #48]	; 0x30
 800122a:	f022 0201 	bic.w	r2, r2, #1
 800122e:	631a      	str	r2, [r3, #48]	; 0x30
 8001230:	691a      	ldr	r2, [r3, #16]
 8001232:	611a      	str	r2, [r3, #16]
 8001234:	f000 f986 	bl	8001544 <LL_RCC_DeInit>
 8001238:	4a03      	ldr	r2, [pc, #12]	; (8001248 <peripheral_deinit+0x40>)
 800123a:	6a53      	ldr	r3, [r2, #36]	; 0x24
 800123c:	f423 23e0 	bic.w	r3, r3, #458752	; 0x70000
 8001240:	6253      	str	r3, [r2, #36]	; 0x24
 8001242:	bd08      	pop	{r3, pc}
 8001244:	40023800 	.word	0x40023800
 8001248:	e000ed00 	.word	0xe000ed00

0800124c <SysTick_Handler>:
 800124c:	4a02      	ldr	r2, [pc, #8]	; (8001258 <SysTick_Handler+0xc>)
 800124e:	6813      	ldr	r3, [r2, #0]
 8001250:	3301      	adds	r3, #1
 8001252:	6013      	str	r3, [r2, #0]
 8001254:	4770      	bx	lr
 8001256:	bf00      	nop
 8001258:	20000624 	.word	0x20000624

0800125c <RINGBUF_Init>:
 800125c:	b148      	cbz	r0, 8001272 <RINGBUF_Init+0x16>
 800125e:	b141      	cbz	r1, 8001272 <RINGBUF_Init+0x16>
 8001260:	2a01      	cmp	r2, #1
 8001262:	d906      	bls.n	8001272 <RINGBUF_Init+0x16>
 8001264:	2300      	movs	r3, #0
 8001266:	6003      	str	r3, [r0, #0]
 8001268:	60c1      	str	r1, [r0, #12]
 800126a:	6043      	str	r3, [r0, #4]
 800126c:	6082      	str	r2, [r0, #8]
 800126e:	4618      	mov	r0, r3
 8001270:	4770      	bx	lr
 8001272:	f04f 30ff 	mov.w	r0, #4294967295	; 0xffffffff
 8001276:	4770      	bx	lr

08001278 <RINGBUF_Put>:
 8001278:	6803      	ldr	r3, [r0, #0]
 800127a:	6882      	ldr	r2, [r0, #8]
 800127c:	3301      	adds	r3, #1
 800127e:	429a      	cmp	r2, r3
 8001280:	bf98      	it	ls
 8001282:	2300      	movls	r3, #0
 8001284:	6842      	ldr	r2, [r0, #4]
 8001286:	b510      	push	{r4, lr}
 8001288:	429a      	cmp	r2, r3
 800128a:	bf1d      	ittte	ne
 800128c:	6802      	ldrne	r2, [r0, #0]
 800128e:	68c4      	ldrne	r4, [r0, #12]
 8001290:	54a1      	strbne	r1, [r4, r2]
 8001292:	f04f 30ff 	moveq.w	r0, #4294967295	; 0xffffffff
 8001296:	bf1c      	itt	ne
 8001298:	6003      	strne	r3, [r0, #0]
 800129a:	2000      	movne	r0, #0
 800129c:	bd10      	pop	{r4, pc}

0800129e <RINGBUF_Get>:
 800129e:	6842      	ldr	r2, [r0, #4]
 80012a0:	6803      	ldr	r3, [r0, #0]
 80012a2:	429a      	cmp	r2, r3
 80012a4:	d00f      	beq.n	80012c6 <RINGBUF_Get+0x28>
 80012a6:	6843      	ldr	r3, [r0, #4]
 80012a8:	68c2      	ldr	r2, [r0, #12]
 80012aa:	5cd3      	ldrb	r3, [r2, r3]
 80012ac:	700b      	strb	r3, [r1, #0]
 80012ae:	6843      	ldr	r3, [r0, #4]
 80012b0:	3301      	adds	r3, #1
 80012b2:	6043      	str	r3, [r0, #4]
 80012b4:	6842      	ldr	r2, [r0, #4]
 80012b6:	6883      	ldr	r3, [r0, #8]
 80012b8:	429a      	cmp	r2, r3
 80012ba:	f04f 0300 	mov.w	r3, #0
 80012be:	d300      	bcc.n	80012c2 <RINGBUF_Get+0x24>
 80012c0:	6043      	str	r3, [r0, #4]
 80012c2:	4618      	mov	r0, r3
 80012c4:	4770      	bx	lr
 80012c6:	f04f 30ff 	mov.w	r0, #4294967295	; 0xffffffff
 80012ca:	4770      	bx	lr

080012cc <RINGBUF_GetFill>:
 80012cc:	6802      	ldr	r2, [r0, #0]
 80012ce:	6843      	ldr	r3, [r0, #4]
 80012d0:	429a      	cmp	r2, r3
 80012d2:	bf27      	ittee	cs
 80012d4:	6803      	ldrcs	r3, [r0, #0]
 80012d6:	6840      	ldrcs	r0, [r0, #4]
 80012d8:	6883      	ldrcc	r3, [r0, #8]
 80012da:	6842      	ldrcc	r2, [r0, #4]
 80012dc:	bf2f      	iteee	cs
 80012de:	1a18      	subcs	r0, r3, r0
 80012e0:	6800      	ldrcc	r0, [r0, #0]
 80012e2:	18c0      	addcc	r0, r0, r3
 80012e4:	1a80      	subcc	r0, r0, r2
 80012e6:	4770      	bx	lr

080012e8 <NMI_Handler>:
 80012e8:	e7fe      	b.n	80012e8 <NMI_Handler>

080012ea <HardFault_Handler>:
 80012ea:	e7fe      	b.n	80012ea <HardFault_Handler>

080012ec <MemManage_Handler>:
 80012ec:	e7fe      	b.n	80012ec <MemManage_Handler>

080012ee <BusFault_Handler>:
 80012ee:	e7fe      	b.n	80012ee <BusFault_Handler>

080012f0 <UsageFault_Handler>:
 80012f0:	e7fe      	b.n	80012f0 <UsageFault_Handler>

080012f2 <SVC_Handler>:
 80012f2:	4770      	bx	lr

080012f4 <DebugMon_Handler>:
 80012f4:	4770      	bx	lr

080012f6 <PendSV_Handler>:
 80012f6:	4770      	bx	lr

080012f8 <SystemInit>:
 80012f8:	4a03      	ldr	r2, [pc, #12]	; (8001308 <SystemInit+0x10>)
 80012fa:	f8d2 3088 	ldr.w	r3, [r2, #136]	; 0x88
 80012fe:	f443 0370 	orr.w	r3, r3, #15728640	; 0xf00000
 8001302:	f8c2 3088 	str.w	r3, [r2, #136]	; 0x88
 8001306:	4770      	bx	lr
 8001308:	e000ed00 	.word	0xe000ed00

0800130c <Reset_Handler>:
 800130c:	f8df d034 	ldr.w	sp, [pc, #52]	; 8001344 <LoopFillZerobss+0x12>
 8001310:	480d      	ldr	r0, [pc, #52]	; (8001348 <LoopFillZerobss+0x16>)
 8001312:	490e      	ldr	r1, [pc, #56]	; (800134c <LoopFillZerobss+0x1a>)
 8001314:	4a0e      	ldr	r2, [pc, #56]	; (8001350 <LoopFillZerobss+0x1e>)
 8001316:	2300      	movs	r3, #0
 8001318:	e002      	b.n	8001320 <LoopCopyDataInit>

0800131a <CopyDataInit>:
 800131a:	58d4      	ldr	r4, [r2, r3]
 800131c:	50c4      	str	r4, [r0, r3]
 800131e:	3304      	adds	r3, #4

08001320 <LoopCopyDataInit>:
 8001320:	18c4      	adds	r4, r0, r3
 8001322:	428c      	cmp	r4, r1
 8001324:	d3f9      	bcc.n	800131a <CopyDataInit>
 8001326:	4a0b      	ldr	r2, [pc, #44]	; (8001354 <LoopFillZerobss+0x22>)
 8001328:	4c0b      	ldr	r4, [pc, #44]	; (8001358 <LoopFillZerobss+0x26>)
 800132a:	2300      	movs	r3, #0
 800132c:	e001      	b.n	8001332 <LoopFillZerobss>

0800132e <FillZerobss>:
 800132e:	6013      	str	r3, [r2, #0]
 8001330:	3204      	adds	r2, #4

08001332 <LoopFillZerobss>:
 8001332:	42a2      	cmp	r2, r4
 8001334:	d3fb      	bcc.n	800132e <FillZerobss>
 8001336:	f7ff ffdf 	bl	80012f8 <SystemInit>
 800133a:	f000 fa3d 	bl	80017b8 <__libc_init_array>
 800133e:	f7ff fb03 	bl	8000948 <main>
 8001342:	4770      	bx	lr
 8001344:	20020000 	.word	0x20020000
 8001348:	20000000 	.word	0x20000000
 800134c:	20000004 	.word	0x20000004
 8001350:	080022c8 	.word	0x080022c8
 8001354:	20000004 	.word	0x20000004
 8001358:	20000628 	.word	0x20000628

0800135c <ADC_IRQHandler>:
 800135c:	e7fe      	b.n	800135c <ADC_IRQHandler>
	...

08001360 <LL_EXTI_Init>:
 8001360:	b510      	push	{r4, lr}
 8001362:	4602      	mov	r2, r0
 8001364:	7900      	ldrb	r0, [r0, #4]
 8001366:	6813      	ldr	r3, [r2, #0]
 8001368:	2800      	cmp	r0, #0
 800136a:	d03d      	beq.n	80013e8 <LL_EXTI_Init+0x88>
 800136c:	2b00      	cmp	r3, #0
 800136e:	d045      	beq.n	80013fc <LL_EXTI_Init+0x9c>
 8001370:	7950      	ldrb	r0, [r2, #5]
 8001372:	2801      	cmp	r0, #1
 8001374:	d01b      	beq.n	80013ae <LL_EXTI_Init+0x4e>
 8001376:	2802      	cmp	r0, #2
 8001378:	d023      	beq.n	80013c2 <LL_EXTI_Init+0x62>
 800137a:	bb30      	cbnz	r0, 80013ca <LL_EXTI_Init+0x6a>
 800137c:	4921      	ldr	r1, [pc, #132]	; (8001404 <LL_EXTI_Init+0xa4>)
 800137e:	684c      	ldr	r4, [r1, #4]
 8001380:	ea24 0403 	bic.w	r4, r4, r3
 8001384:	604c      	str	r4, [r1, #4]
 8001386:	680c      	ldr	r4, [r1, #0]
 8001388:	431c      	orrs	r4, r3
 800138a:	600c      	str	r4, [r1, #0]
 800138c:	7992      	ldrb	r2, [r2, #6]
 800138e:	b16a      	cbz	r2, 80013ac <LL_EXTI_Init+0x4c>
 8001390:	2a02      	cmp	r2, #2
 8001392:	d01c      	beq.n	80013ce <LL_EXTI_Init+0x6e>
 8001394:	2a03      	cmp	r2, #3
 8001396:	d023      	beq.n	80013e0 <LL_EXTI_Init+0x80>
 8001398:	2a01      	cmp	r2, #1
 800139a:	d131      	bne.n	8001400 <LL_EXTI_Init+0xa0>
 800139c:	4a19      	ldr	r2, [pc, #100]	; (8001404 <LL_EXTI_Init+0xa4>)
 800139e:	68d1      	ldr	r1, [r2, #12]
 80013a0:	ea21 0103 	bic.w	r1, r1, r3
 80013a4:	60d1      	str	r1, [r2, #12]
 80013a6:	6891      	ldr	r1, [r2, #8]
 80013a8:	430b      	orrs	r3, r1
 80013aa:	6093      	str	r3, [r2, #8]
 80013ac:	bd10      	pop	{r4, pc}
 80013ae:	4915      	ldr	r1, [pc, #84]	; (8001404 <LL_EXTI_Init+0xa4>)
 80013b0:	6808      	ldr	r0, [r1, #0]
 80013b2:	ea20 0003 	bic.w	r0, r0, r3
 80013b6:	6008      	str	r0, [r1, #0]
 80013b8:	6848      	ldr	r0, [r1, #4]
 80013ba:	4318      	orrs	r0, r3
 80013bc:	6048      	str	r0, [r1, #4]
 80013be:	2000      	movs	r0, #0
 80013c0:	e7e4      	b.n	800138c <LL_EXTI_Init+0x2c>
 80013c2:	4910      	ldr	r1, [pc, #64]	; (8001404 <LL_EXTI_Init+0xa4>)
 80013c4:	6808      	ldr	r0, [r1, #0]
 80013c6:	4318      	orrs	r0, r3
 80013c8:	e7f5      	b.n	80013b6 <LL_EXTI_Init+0x56>
 80013ca:	2001      	movs	r0, #1
 80013cc:	e7de      	b.n	800138c <LL_EXTI_Init+0x2c>
 80013ce:	4a0d      	ldr	r2, [pc, #52]	; (8001404 <LL_EXTI_Init+0xa4>)
 80013d0:	6891      	ldr	r1, [r2, #8]
 80013d2:	ea21 0103 	bic.w	r1, r1, r3
 80013d6:	6091      	str	r1, [r2, #8]
 80013d8:	68d1      	ldr	r1, [r2, #12]
 80013da:	430b      	orrs	r3, r1
 80013dc:	60d3      	str	r3, [r2, #12]
 80013de:	e7e5      	b.n	80013ac <LL_EXTI_Init+0x4c>
 80013e0:	4a08      	ldr	r2, [pc, #32]	; (8001404 <LL_EXTI_Init+0xa4>)
 80013e2:	6891      	ldr	r1, [r2, #8]
 80013e4:	4319      	orrs	r1, r3
 80013e6:	e7f6      	b.n	80013d6 <LL_EXTI_Init+0x76>
 80013e8:	4a06      	ldr	r2, [pc, #24]	; (8001404 <LL_EXTI_Init+0xa4>)
 80013ea:	6811      	ldr	r1, [r2, #0]
 80013ec:	ea21 0103 	bic.w	r1, r1, r3
 80013f0:	6011      	str	r1, [r2, #0]
 80013f2:	6851      	ldr	r1, [r2, #4]
 80013f4:	ea21 0303 	bic.w	r3, r1, r3
 80013f8:	6053      	str	r3, [r2, #4]
 80013fa:	e7d7      	b.n	80013ac <LL_EXTI_Init+0x4c>
 80013fc:	4618      	mov	r0, r3
 80013fe:	e7d5      	b.n	80013ac <LL_EXTI_Init+0x4c>
 8001400:	2001      	movs	r0, #1
 8001402:	e7d3      	b.n	80013ac <LL_EXTI_Init+0x4c>
 8001404:	40013c00 	.word	0x40013c00

08001408 <LL_GPIO_Init>:
 8001408:	e92d 47f0 	stmdb	sp!, {r4, r5, r6, r7, r8, r9, sl, lr}
 800140c:	4602      	mov	r2, r0
 800140e:	680d      	ldr	r5, [r1, #0]
 8001410:	fa95 f4a5 	rbit	r4, r5
 8001414:	f04f 0e01 	mov.w	lr, #1
 8001418:	fab4 f484 	clz	r4, r4
 800141c:	2603      	movs	r6, #3
 800141e:	f04f 0c0f 	mov.w	ip, #15
 8001422:	fa35 f004 	lsrs.w	r0, r5, r4
 8001426:	d101      	bne.n	800142c <LL_GPIO_Init+0x24>
 8001428:	e8bd 87f0 	ldmia.w	sp!, {r4, r5, r6, r7, r8, r9, sl, pc}
 800142c:	fa0e f304 	lsl.w	r3, lr, r4
 8001430:	402b      	ands	r3, r5
 8001432:	d06d      	beq.n	8001510 <LL_GPIO_Init+0x108>
 8001434:	6848      	ldr	r0, [r1, #4]
 8001436:	1e47      	subs	r7, r0, #1
 8001438:	2f01      	cmp	r7, #1
 800143a:	d81e      	bhi.n	800147a <LL_GPIO_Init+0x72>
 800143c:	f8d2 8008 	ldr.w	r8, [r2, #8]
 8001440:	fa93 f7a3 	rbit	r7, r3
 8001444:	fab7 f787 	clz	r7, r7
 8001448:	fa93 f9a3 	rbit	r9, r3
 800144c:	007f      	lsls	r7, r7, #1
 800144e:	fa06 f707 	lsl.w	r7, r6, r7
 8001452:	ea28 0807 	bic.w	r8, r8, r7
 8001456:	fab9 f989 	clz	r9, r9
 800145a:	688f      	ldr	r7, [r1, #8]
 800145c:	ea4f 0949 	mov.w	r9, r9, lsl #1
 8001460:	fa07 f709 	lsl.w	r7, r7, r9
 8001464:	ea48 0707 	orr.w	r7, r8, r7
 8001468:	6097      	str	r7, [r2, #8]
 800146a:	6857      	ldr	r7, [r2, #4]
 800146c:	ea27 0803 	bic.w	r8, r7, r3
 8001470:	68cf      	ldr	r7, [r1, #12]
 8001472:	435f      	muls	r7, r3
 8001474:	ea48 0707 	orr.w	r7, r8, r7
 8001478:	6057      	str	r7, [r2, #4]
 800147a:	f8d2 800c 	ldr.w	r8, [r2, #12]
 800147e:	fa93 f7a3 	rbit	r7, r3
 8001482:	fab7 f787 	clz	r7, r7
 8001486:	fa93 f9a3 	rbit	r9, r3
 800148a:	007f      	lsls	r7, r7, #1
 800148c:	fa06 f707 	lsl.w	r7, r6, r7
 8001490:	ea28 0807 	bic.w	r8, r8, r7
 8001494:	fab9 f989 	clz	r9, r9
 8001498:	690f      	ldr	r7, [r1, #16]
 800149a:	ea4f 0949 	mov.w	r9, r9, lsl #1
 800149e:	fa07 f709 	lsl.w	r7, r7, r9
 80014a2:	ea48 0707 	orr.w	r7, r8, r7
 80014a6:	2802      	cmp	r0, #2
 80014a8:	60d7      	str	r7, [r2, #12]
 80014aa:	d11d      	bne.n	80014e8 <LL_GPIO_Init+0xe0>
 80014ac:	fa93 f7a3 	rbit	r7, r3
 80014b0:	fab7 f787 	clz	r7, r7
 80014b4:	2f07      	cmp	r7, #7
 80014b6:	f8d1 9014 	ldr.w	r9, [r1, #20]
 80014ba:	dc2b      	bgt.n	8001514 <LL_GPIO_Init+0x10c>
 80014bc:	f8d2 a020 	ldr.w	sl, [r2, #32]
 80014c0:	fa93 f8a3 	rbit	r8, r3
 80014c4:	fab8 f888 	clz	r8, r8
 80014c8:	fa93 f7a3 	rbit	r7, r3
 80014cc:	fab7 f787 	clz	r7, r7
 80014d0:	ea4f 0888 	mov.w	r8, r8, lsl #2
 80014d4:	fa0c f808 	lsl.w	r8, ip, r8
 80014d8:	00bf      	lsls	r7, r7, #2
 80014da:	ea2a 0808 	bic.w	r8, sl, r8
 80014de:	fa09 f707 	lsl.w	r7, r9, r7
 80014e2:	ea48 0707 	orr.w	r7, r8, r7
 80014e6:	6217      	str	r7, [r2, #32]
 80014e8:	f8d2 8000 	ldr.w	r8, [r2]
 80014ec:	fa93 f7a3 	rbit	r7, r3
 80014f0:	fab7 f787 	clz	r7, r7
 80014f4:	fa93 f3a3 	rbit	r3, r3
 80014f8:	fab3 f383 	clz	r3, r3
 80014fc:	007f      	lsls	r7, r7, #1
 80014fe:	fa06 f707 	lsl.w	r7, r6, r7
 8001502:	005b      	lsls	r3, r3, #1
 8001504:	ea28 0707 	bic.w	r7, r8, r7
 8001508:	fa00 f303 	lsl.w	r3, r0, r3
 800150c:	433b      	orrs	r3, r7
 800150e:	6013      	str	r3, [r2, #0]
 8001510:	3401      	adds	r4, #1
 8001512:	e786      	b.n	8001422 <LL_GPIO_Init+0x1a>
 8001514:	f8d2 a024 	ldr.w	sl, [r2, #36]	; 0x24
 8001518:	0a1f      	lsrs	r7, r3, #8
 800151a:	fa97 f8a7 	rbit	r8, r7
 800151e:	fab8 f888 	clz	r8, r8
 8001522:	fa97 f7a7 	rbit	r7, r7
 8001526:	fab7 f787 	clz	r7, r7
 800152a:	ea4f 0888 	mov.w	r8, r8, lsl #2
 800152e:	fa0c f808 	lsl.w	r8, ip, r8
 8001532:	00bf      	lsls	r7, r7, #2
 8001534:	ea2a 0808 	bic.w	r8, sl, r8
 8001538:	fa09 f707 	lsl.w	r7, r9, r7
 800153c:	ea48 0707 	orr.w	r7, r8, r7
 8001540:	6257      	str	r7, [r2, #36]	; 0x24
 8001542:	e7d1      	b.n	80014e8 <LL_GPIO_Init+0xe0>

08001544 <LL_RCC_DeInit>:
 8001544:	4b21      	ldr	r3, [pc, #132]	; (80015cc <LL_RCC_DeInit+0x88>)
 8001546:	681a      	ldr	r2, [r3, #0]
 8001548:	f042 0201 	orr.w	r2, r2, #1
 800154c:	b082      	sub	sp, #8
 800154e:	601a      	str	r2, [r3, #0]
 8001550:	681a      	ldr	r2, [r3, #0]
 8001552:	0792      	lsls	r2, r2, #30
 8001554:	d5fc      	bpl.n	8001550 <LL_RCC_DeInit+0xc>
 8001556:	2200      	movs	r2, #0
 8001558:	609a      	str	r2, [r3, #8]
 800155a:	681a      	ldr	r2, [r3, #0]
 800155c:	9201      	str	r2, [sp, #4]
 800155e:	9a01      	ldr	r2, [sp, #4]
 8001560:	f022 7286 	bic.w	r2, r2, #17563648	; 0x10c0000
 8001564:	f422 3280 	bic.w	r2, r2, #65536	; 0x10000
 8001568:	9201      	str	r2, [sp, #4]
 800156a:	9a01      	ldr	r2, [sp, #4]
 800156c:	f022 6280 	bic.w	r2, r2, #67108864	; 0x4000000
 8001570:	9201      	str	r2, [sp, #4]
 8001572:	9a01      	ldr	r2, [sp, #4]
 8001574:	601a      	str	r2, [r3, #0]
 8001576:	681a      	ldr	r2, [r3, #0]
 8001578:	f022 02f8 	bic.w	r2, r2, #248	; 0xf8
 800157c:	f042 0280 	orr.w	r2, r2, #128	; 0x80
 8001580:	601a      	str	r2, [r3, #0]
 8001582:	4b12      	ldr	r3, [pc, #72]	; (80015cc <LL_RCC_DeInit+0x88>)
 8001584:	6818      	ldr	r0, [r3, #0]
 8001586:	f010 7000 	ands.w	r0, r0, #33554432	; 0x2000000
 800158a:	d1fb      	bne.n	8001584 <LL_RCC_DeInit+0x40>
 800158c:	4a10      	ldr	r2, [pc, #64]	; (80015d0 <LL_RCC_DeInit+0x8c>)
 800158e:	605a      	str	r2, [r3, #4]
 8001590:	f102 427c 	add.w	r2, r2, #4227858432	; 0xfc000000
 8001594:	f8c3 2084 	str.w	r2, [r3, #132]	; 0x84
 8001598:	68da      	ldr	r2, [r3, #12]
 800159a:	f422 52f8 	bic.w	r2, r2, #7936	; 0x1f00
 800159e:	60da      	str	r2, [r3, #12]
 80015a0:	68da      	ldr	r2, [r3, #12]
 80015a2:	f422 5200 	bic.w	r2, r2, #8192	; 0x2000
 80015a6:	60da      	str	r2, [r3, #12]
 80015a8:	68da      	ldr	r2, [r3, #12]
 80015aa:	f442 021f 	orr.w	r2, r2, #10420224	; 0x9f0000
 80015ae:	60da      	str	r2, [r3, #12]
 80015b0:	68da      	ldr	r2, [r3, #12]
 80015b2:	f442 1200 	orr.w	r2, r2, #2097152	; 0x200000
 80015b6:	60da      	str	r2, [r3, #12]
 80015b8:	6f5a      	ldr	r2, [r3, #116]	; 0x74
 80015ba:	f022 0201 	bic.w	r2, r2, #1
 80015be:	675a      	str	r2, [r3, #116]	; 0x74
 80015c0:	6f5a      	ldr	r2, [r3, #116]	; 0x74
 80015c2:	f042 7280 	orr.w	r2, r2, #16777216	; 0x1000000
 80015c6:	675a      	str	r2, [r3, #116]	; 0x74
 80015c8:	b002      	add	sp, #8
 80015ca:	4770      	bx	lr
 80015cc:	40023800 	.word	0x40023800
 80015d0:	24003010 	.word	0x24003010

080015d4 <RCC_GetHCLKClockFreq>:
 80015d4:	4b03      	ldr	r3, [pc, #12]	; (80015e4 <RCC_GetHCLKClockFreq+0x10>)
 80015d6:	4a04      	ldr	r2, [pc, #16]	; (80015e8 <RCC_GetHCLKClockFreq+0x14>)
 80015d8:	689b      	ldr	r3, [r3, #8]
 80015da:	f3c3 1303 	ubfx	r3, r3, #4, #4
 80015de:	5cd3      	ldrb	r3, [r2, r3]
 80015e0:	40d8      	lsrs	r0, r3
 80015e2:	4770      	bx	lr
 80015e4:	40023800 	.word	0x40023800
 80015e8:	080022a0 	.word	0x080022a0

080015ec <RCC_GetPCLK1ClockFreq>:
 80015ec:	4b03      	ldr	r3, [pc, #12]	; (80015fc <RCC_GetPCLK1ClockFreq+0x10>)
 80015ee:	4a04      	ldr	r2, [pc, #16]	; (8001600 <RCC_GetPCLK1ClockFreq+0x14>)
 80015f0:	689b      	ldr	r3, [r3, #8]
 80015f2:	f3c3 2382 	ubfx	r3, r3, #10, #3
 80015f6:	5cd3      	ldrb	r3, [r2, r3]
 80015f8:	40d8      	lsrs	r0, r3
 80015fa:	4770      	bx	lr
 80015fc:	40023800 	.word	0x40023800
 8001600:	080022b0 	.word	0x080022b0

08001604 <RCC_GetPCLK2ClockFreq>:
 8001604:	4b03      	ldr	r3, [pc, #12]	; (8001614 <RCC_GetPCLK2ClockFreq+0x10>)
 8001606:	4a04      	ldr	r2, [pc, #16]	; (8001618 <RCC_GetPCLK2ClockFreq+0x14>)
 8001608:	689b      	ldr	r3, [r3, #8]
 800160a:	f3c3 3342 	ubfx	r3, r3, #13, #3
 800160e:	5cd3      	ldrb	r3, [r2, r3]
 8001610:	40d8      	lsrs	r0, r3
 8001612:	4770      	bx	lr
 8001614:	40023800 	.word	0x40023800
 8001618:	080022b0 	.word	0x080022b0

0800161c <RCC_PLL_GetFreqDomain_SYS>:
 800161c:	4a0e      	ldr	r2, [pc, #56]	; (8001658 <RCC_PLL_GetFreqDomain_SYS+0x3c>)
 800161e:	490f      	ldr	r1, [pc, #60]	; (800165c <RCC_PLL_GetFreqDomain_SYS+0x40>)
 8001620:	6853      	ldr	r3, [r2, #4]
 8001622:	f413 0f80 	tst.w	r3, #4194304	; 0x400000
 8001626:	4b0e      	ldr	r3, [pc, #56]	; (8001660 <RCC_PLL_GetFreqDomain_SYS+0x44>)
 8001628:	bf18      	it	ne
 800162a:	460b      	movne	r3, r1
 800162c:	2808      	cmp	r0, #8
 800162e:	d110      	bne.n	8001652 <RCC_PLL_GetFreqDomain_SYS+0x36>
 8001630:	6850      	ldr	r0, [r2, #4]
 8001632:	6851      	ldr	r1, [r2, #4]
 8001634:	6852      	ldr	r2, [r2, #4]
 8001636:	f000 003f 	and.w	r0, r0, #63	; 0x3f
 800163a:	fbb3 f0f0 	udiv	r0, r3, r0
 800163e:	f3c1 1388 	ubfx	r3, r1, #6, #9
 8001642:	4358      	muls	r0, r3
 8001644:	f3c2 4301 	ubfx	r3, r2, #16, #2
 8001648:	3301      	adds	r3, #1
 800164a:	005b      	lsls	r3, r3, #1
 800164c:	fbb0 f0f3 	udiv	r0, r0, r3
 8001650:	4770      	bx	lr
 8001652:	2000      	movs	r0, #0
 8001654:	4770      	bx	lr
 8001656:	bf00      	nop
 8001658:	40023800 	.word	0x40023800
 800165c:	007a1200 	.word	0x007a1200
 8001660:	00f42400 	.word	0x00f42400

08001664 <RCC_GetSystemClockFreq>:
 8001664:	4b06      	ldr	r3, [pc, #24]	; (8001680 <RCC_GetSystemClockFreq+0x1c>)
 8001666:	6898      	ldr	r0, [r3, #8]
 8001668:	f000 000c 	and.w	r0, r0, #12
 800166c:	2804      	cmp	r0, #4
 800166e:	d003      	beq.n	8001678 <RCC_GetSystemClockFreq+0x14>
 8001670:	2808      	cmp	r0, #8
 8001672:	d103      	bne.n	800167c <RCC_GetSystemClockFreq+0x18>
 8001674:	f7ff bfd2 	b.w	800161c <RCC_PLL_GetFreqDomain_SYS>
 8001678:	4802      	ldr	r0, [pc, #8]	; (8001684 <RCC_GetSystemClockFreq+0x20>)
 800167a:	4770      	bx	lr
 800167c:	4802      	ldr	r0, [pc, #8]	; (8001688 <RCC_GetSystemClockFreq+0x24>)
 800167e:	4770      	bx	lr
 8001680:	40023800 	.word	0x40023800
 8001684:	007a1200 	.word	0x007a1200
 8001688:	00f42400 	.word	0x00f42400

0800168c <LL_RCC_GetSystemClocksFreq>:
 800168c:	b510      	push	{r4, lr}
 800168e:	4604      	mov	r4, r0
 8001690:	f7ff ffe8 	bl	8001664 <RCC_GetSystemClockFreq>
 8001694:	6020      	str	r0, [r4, #0]
 8001696:	f7ff ff9d 	bl	80015d4 <RCC_GetHCLKClockFreq>
 800169a:	6060      	str	r0, [r4, #4]
 800169c:	f7ff ffa6 	bl	80015ec <RCC_GetPCLK1ClockFreq>
 80016a0:	60a0      	str	r0, [r4, #8]
 80016a2:	6860      	ldr	r0, [r4, #4]
 80016a4:	f7ff ffae 	bl	8001604 <RCC_GetPCLK2ClockFreq>
 80016a8:	60e0      	str	r0, [r4, #12]
 80016aa:	bd10      	pop	{r4, pc}

080016ac <LL_USART_Init>:
 80016ac:	b57f      	push	{r0, r1, r2, r3, r4, r5, r6, lr}
 80016ae:	68c3      	ldr	r3, [r0, #12]
 80016b0:	049b      	lsls	r3, r3, #18
 80016b2:	4604      	mov	r4, r0
 80016b4:	460d      	mov	r5, r1
 80016b6:	d502      	bpl.n	80016be <LL_USART_Init+0x12>
 80016b8:	2001      	movs	r0, #1
 80016ba:	b004      	add	sp, #16
 80016bc:	bd70      	pop	{r4, r5, r6, pc}
 80016be:	684b      	ldr	r3, [r1, #4]
 80016c0:	68c9      	ldr	r1, [r1, #12]
 80016c2:	68c2      	ldr	r2, [r0, #12]
 80016c4:	430b      	orrs	r3, r1
 80016c6:	6929      	ldr	r1, [r5, #16]
 80016c8:	430b      	orrs	r3, r1
 80016ca:	69a9      	ldr	r1, [r5, #24]
 80016cc:	f422 4216 	bic.w	r2, r2, #38400	; 0x9600
 80016d0:	430b      	orrs	r3, r1
 80016d2:	f022 020c 	bic.w	r2, r2, #12
 80016d6:	4313      	orrs	r3, r2
 80016d8:	60c3      	str	r3, [r0, #12]
 80016da:	6903      	ldr	r3, [r0, #16]
 80016dc:	68aa      	ldr	r2, [r5, #8]
 80016de:	f423 5340 	bic.w	r3, r3, #12288	; 0x3000
 80016e2:	4313      	orrs	r3, r2
 80016e4:	6103      	str	r3, [r0, #16]
 80016e6:	6943      	ldr	r3, [r0, #20]
 80016e8:	696a      	ldr	r2, [r5, #20]
 80016ea:	f423 7340 	bic.w	r3, r3, #768	; 0x300
 80016ee:	4313      	orrs	r3, r2
 80016f0:	6143      	str	r3, [r0, #20]
 80016f2:	4668      	mov	r0, sp
 80016f4:	f7ff ffca 	bl	800168c <LL_RCC_GetSystemClocksFreq>
 80016f8:	4b22      	ldr	r3, [pc, #136]	; (8001784 <LL_USART_Init+0xd8>)
 80016fa:	429c      	cmp	r4, r3
 80016fc:	d128      	bne.n	8001750 <LL_USART_Init+0xa4>
 80016fe:	9903      	ldr	r1, [sp, #12]
 8001700:	2900      	cmp	r1, #0
 8001702:	d0d9      	beq.n	80016b8 <LL_USART_Init+0xc>
 8001704:	682b      	ldr	r3, [r5, #0]
 8001706:	2b00      	cmp	r3, #0
 8001708:	d0d6      	beq.n	80016b8 <LL_USART_Init+0xc>
 800170a:	69aa      	ldr	r2, [r5, #24]
 800170c:	2019      	movs	r0, #25
 800170e:	f5b2 4f00 	cmp.w	r2, #32768	; 0x8000
 8001712:	fba1 0100 	umull	r0, r1, r1, r0
 8001716:	d124      	bne.n	8001762 <LL_USART_Init+0xb6>
 8001718:	18da      	adds	r2, r3, r3
 800171a:	f04f 0500 	mov.w	r5, #0
 800171e:	eb45 0305 	adc.w	r3, r5, r5
 8001722:	f7fe fd59 	bl	80001d8 <__aeabi_uldivmod>
 8001726:	2164      	movs	r1, #100	; 0x64
 8001728:	fbb0 f6f1 	udiv	r6, r0, r1
 800172c:	fb01 0316 	mls	r3, r1, r6, r0
 8001730:	00db      	lsls	r3, r3, #3
 8001732:	3332      	adds	r3, #50	; 0x32
 8001734:	fbb3 f3f1 	udiv	r3, r3, r1
 8001738:	f003 0207 	and.w	r2, r3, #7
 800173c:	005b      	lsls	r3, r3, #1
 800173e:	eb02 1206 	add.w	r2, r2, r6, lsl #4
 8001742:	f403 73f8 	and.w	r3, r3, #496	; 0x1f0
 8001746:	4413      	add	r3, r2
 8001748:	b29b      	uxth	r3, r3
 800174a:	60a3      	str	r3, [r4, #8]
 800174c:	2000      	movs	r0, #0
 800174e:	e7b4      	b.n	80016ba <LL_USART_Init+0xe>
 8001750:	4b0d      	ldr	r3, [pc, #52]	; (8001788 <LL_USART_Init+0xdc>)
 8001752:	429c      	cmp	r4, r3
 8001754:	d101      	bne.n	800175a <LL_USART_Init+0xae>
 8001756:	9902      	ldr	r1, [sp, #8]
 8001758:	e7d2      	b.n	8001700 <LL_USART_Init+0x54>
 800175a:	4b0c      	ldr	r3, [pc, #48]	; (800178c <LL_USART_Init+0xe0>)
 800175c:	429c      	cmp	r4, r3
 800175e:	d1ab      	bne.n	80016b8 <LL_USART_Init+0xc>
 8001760:	e7cd      	b.n	80016fe <LL_USART_Init+0x52>
 8001762:	009a      	lsls	r2, r3, #2
 8001764:	0f9b      	lsrs	r3, r3, #30
 8001766:	f7fe fd37 	bl	80001d8 <__aeabi_uldivmod>
 800176a:	2264      	movs	r2, #100	; 0x64
 800176c:	fbb0 f1f2 	udiv	r1, r0, r2
 8001770:	fb02 0311 	mls	r3, r2, r1, r0
 8001774:	011b      	lsls	r3, r3, #4
 8001776:	3332      	adds	r3, #50	; 0x32
 8001778:	fbb3 f3f2 	udiv	r3, r3, r2
 800177c:	eb03 1301 	add.w	r3, r3, r1, lsl #4
 8001780:	e7e2      	b.n	8001748 <LL_USART_Init+0x9c>
 8001782:	bf00      	nop
 8001784:	40011000 	.word	0x40011000
 8001788:	40004400 	.word	0x40004400
 800178c:	40011400 	.word	0x40011400

08001790 <LL_Init1msTick>:
 8001790:	f44f 737a 	mov.w	r3, #1000	; 0x3e8
 8001794:	fbb0 f0f3 	udiv	r0, r0, r3
 8001798:	f04f 23e0 	mov.w	r3, #3758153728	; 0xe000e000
 800179c:	2200      	movs	r2, #0
 800179e:	3801      	subs	r0, #1
 80017a0:	6158      	str	r0, [r3, #20]
 80017a2:	619a      	str	r2, [r3, #24]
 80017a4:	2205      	movs	r2, #5
 80017a6:	611a      	str	r2, [r3, #16]
 80017a8:	4770      	bx	lr
	...

080017ac <LL_SetSystemCoreClock>:
 80017ac:	4b01      	ldr	r3, [pc, #4]	; (80017b4 <LL_SetSystemCoreClock+0x8>)
 80017ae:	6018      	str	r0, [r3, #0]
 80017b0:	4770      	bx	lr
 80017b2:	bf00      	nop
 80017b4:	20000000 	.word	0x20000000

080017b8 <__libc_init_array>:
 80017b8:	b570      	push	{r4, r5, r6, lr}
 80017ba:	4d0d      	ldr	r5, [pc, #52]	; (80017f0 <__libc_init_array+0x38>)
 80017bc:	4c0d      	ldr	r4, [pc, #52]	; (80017f4 <__libc_init_array+0x3c>)
 80017be:	1b64      	subs	r4, r4, r5
 80017c0:	10a4      	asrs	r4, r4, #2
 80017c2:	2600      	movs	r6, #0
 80017c4:	42a6      	cmp	r6, r4
 80017c6:	d109      	bne.n	80017dc <__libc_init_array+0x24>
 80017c8:	4d0b      	ldr	r5, [pc, #44]	; (80017f8 <__libc_init_array+0x40>)
 80017ca:	4c0c      	ldr	r4, [pc, #48]	; (80017fc <__libc_init_array+0x44>)
 80017cc:	f000 f82e 	bl	800182c <_init>
 80017d0:	1b64      	subs	r4, r4, r5
 80017d2:	10a4      	asrs	r4, r4, #2
 80017d4:	2600      	movs	r6, #0
 80017d6:	42a6      	cmp	r6, r4
 80017d8:	d105      	bne.n	80017e6 <__libc_init_array+0x2e>
 80017da:	bd70      	pop	{r4, r5, r6, pc}
 80017dc:	f855 3b04 	ldr.w	r3, [r5], #4
 80017e0:	4798      	blx	r3
 80017e2:	3601      	adds	r6, #1
 80017e4:	e7ee      	b.n	80017c4 <__libc_init_array+0xc>
 80017e6:	f855 3b04 	ldr.w	r3, [r5], #4
 80017ea:	4798      	blx	r3
 80017ec:	3601      	adds	r6, #1
 80017ee:	e7f2      	b.n	80017d6 <__libc_init_array+0x1e>
 80017f0:	080022c0 	.word	0x080022c0
 80017f4:	080022c0 	.word	0x080022c0
 80017f8:	080022c0 	.word	0x080022c0
 80017fc:	080022c4 	.word	0x080022c4

08001800 <memcpy>:
 8001800:	440a      	add	r2, r1
 8001802:	4291      	cmp	r1, r2
 8001804:	f100 33ff 	add.w	r3, r0, #4294967295	; 0xffffffff
 8001808:	d100      	bne.n	800180c <memcpy+0xc>
 800180a:	4770      	bx	lr
 800180c:	b510      	push	{r4, lr}
 800180e:	f811 4b01 	ldrb.w	r4, [r1], #1
 8001812:	f803 4f01 	strb.w	r4, [r3, #1]!
 8001816:	4291      	cmp	r1, r2
 8001818:	d1f9      	bne.n	800180e <memcpy+0xe>
 800181a:	bd10      	pop	{r4, pc}

0800181c <memset>:
 800181c:	4402      	add	r2, r0
 800181e:	4603      	mov	r3, r0
 8001820:	4293      	cmp	r3, r2
 8001822:	d100      	bne.n	8001826 <memset+0xa>
 8001824:	4770      	bx	lr
 8001826:	f803 1b01 	strb.w	r1, [r3], #1
 800182a:	e7f9      	b.n	8001820 <memset+0x4>

0800182c <_init>:
 800182c:	b5f8      	push	{r3, r4, r5, r6, r7, lr}
 800182e:	bf00      	nop
 8001830:	bcf8      	pop	{r3, r4, r5, r6, r7}
 8001832:	bc08      	pop	{r3}
 8001834:	469e      	mov	lr, r3
 8001836:	4770      	bx	lr

08001838 <_fini>:
 8001838:	b5f8      	push	{r3, r4, r5, r6, r7, lr}
 800183a:	bf00      	nop
 800183c:	bcf8      	pop	{r3, r4, r5, r6, r7}
 800183e:	bc08      	pop	{r3}
 8001840:	469e      	mov	lr, r3
 8001842:	4770      	bx	lr
